   1              		.cpu cortex-m0plus
   2              		.fpu softvfp
   3              		.eabi_attribute 20, 1
   4              		.eabi_attribute 21, 1
   5              		.eabi_attribute 23, 3
   6              		.eabi_attribute 24, 1
   7              		.eabi_attribute 25, 1
   8              		.eabi_attribute 26, 1
   9              		.eabi_attribute 30, 6
  10              		.eabi_attribute 34, 0
  11              		.eabi_attribute 18, 4
  12              		.code	16
  13              		.file	"tasks.c"
  14              		.text
  15              	.Ltext0:
  16              		.cfi_sections	.debug_frame
  17              		.global	pxCurrentTCB
  18              		.section	.bss.pxCurrentTCB,"aw",%nobits
  19              		.align	2
  22              	pxCurrentTCB:
  23 0000 00000000 		.space	4
  24              		.section	.bss.pxReadyTasksLists,"aw",%nobits
  25              		.align	2
  28              	pxReadyTasksLists:
  29 0000 00000000 		.space	100
  29      00000000 
  29      00000000 
  29      00000000 
  29      00000000 
  30              		.section	.bss.xDelayedTaskList1,"aw",%nobits
  31              		.align	2
  34              	xDelayedTaskList1:
  35 0000 00000000 		.space	20
  35      00000000 
  35      00000000 
  35      00000000 
  35      00000000 
  36              		.section	.bss.xDelayedTaskList2,"aw",%nobits
  37              		.align	2
  40              	xDelayedTaskList2:
  41 0000 00000000 		.space	20
  41      00000000 
  41      00000000 
  41      00000000 
  41      00000000 
  42              		.section	.bss.pxDelayedTaskList,"aw",%nobits
  43              		.align	2
  46              	pxDelayedTaskList:
  47 0000 00000000 		.space	4
  48              		.section	.bss.pxOverflowDelayedTaskList,"aw",%nobits
  49              		.align	2
  52              	pxOverflowDelayedTaskList:
  53 0000 00000000 		.space	4
  54              		.section	.bss.xPendingReadyList,"aw",%nobits
  55              		.align	2
  58              	xPendingReadyList:
  59 0000 00000000 		.space	20
  59      00000000 
  59      00000000 
  59      00000000 
  59      00000000 
  60              		.section	.bss.xTasksWaitingTermination,"aw",%nobits
  61              		.align	2
  64              	xTasksWaitingTermination:
  65 0000 00000000 		.space	20
  65      00000000 
  65      00000000 
  65      00000000 
  65      00000000 
  66              		.section	.bss.uxDeletedTasksWaitingCleanUp,"aw",%nobits
  67              		.align	2
  70              	uxDeletedTasksWaitingCleanUp:
  71 0000 00000000 		.space	4
  72              		.section	.bss.xSuspendedTaskList,"aw",%nobits
  73              		.align	2
  76              	xSuspendedTaskList:
  77 0000 00000000 		.space	20
  77      00000000 
  77      00000000 
  77      00000000 
  77      00000000 
  78              		.section	.bss.uxCurrentNumberOfTasks,"aw",%nobits
  79              		.align	2
  82              	uxCurrentNumberOfTasks:
  83 0000 00000000 		.space	4
  84              		.section	.bss.xTickCount,"aw",%nobits
  85              		.align	2
  88              	xTickCount:
  89 0000 00000000 		.space	4
  90              		.section	.bss.uxTopReadyPriority,"aw",%nobits
  91              		.align	2
  94              	uxTopReadyPriority:
  95 0000 00000000 		.space	4
  96              		.section	.bss.xSchedulerRunning,"aw",%nobits
  97              		.align	2
 100              	xSchedulerRunning:
 101 0000 00000000 		.space	4
 102              		.section	.bss.uxPendedTicks,"aw",%nobits
 103              		.align	2
 106              	uxPendedTicks:
 107 0000 00000000 		.space	4
 108              		.section	.bss.xYieldPending,"aw",%nobits
 109              		.align	2
 112              	xYieldPending:
 113 0000 00000000 		.space	4
 114              		.section	.bss.xNumOfOverflows,"aw",%nobits
 115              		.align	2
 118              	xNumOfOverflows:
 119 0000 00000000 		.space	4
 120              		.section	.bss.uxTaskNumber,"aw",%nobits
 121              		.align	2
 124              	uxTaskNumber:
 125 0000 00000000 		.space	4
 126              		.section	.bss.xNextTaskUnblockTime,"aw",%nobits
 127              		.align	2
 130              	xNextTaskUnblockTime:
 131 0000 00000000 		.space	4
 132              		.section	.bss.xIdleTaskHandle,"aw",%nobits
 133              		.align	2
 136              	xIdleTaskHandle:
 137 0000 00000000 		.space	4
 138              		.section	.bss.uxSchedulerSuspended,"aw",%nobits
 139              		.align	2
 142              	uxSchedulerSuspended:
 143 0000 00000000 		.space	4
 144              		.section	.text.xTaskCreate,"ax",%progbits
 145              		.align	2
 146              		.global	xTaskCreate
 147              		.code	16
 148              		.thumb_func
 150              	xTaskCreate:
 151              	.LFB0:
 152              		.file 1 "../freertos/tasks.c"
   1:../freertos/tasks.c **** /*
   2:../freertos/tasks.c ****     FreeRTOS V9.0.0 - Copyright (C) 2016 Real Time Engineers Ltd.
   3:../freertos/tasks.c ****     All rights reserved
   4:../freertos/tasks.c **** 
   5:../freertos/tasks.c ****     VISIT http://www.FreeRTOS.org TO ENSURE YOU ARE USING THE LATEST VERSION.
   6:../freertos/tasks.c **** 
   7:../freertos/tasks.c ****     This file is part of the FreeRTOS distribution.
   8:../freertos/tasks.c **** 
   9:../freertos/tasks.c ****     FreeRTOS is free software; you can redistribute it and/or modify it under
  10:../freertos/tasks.c ****     the terms of the GNU General Public License (version 2) as published by the
  11:../freertos/tasks.c ****     Free Software Foundation >>>> AND MODIFIED BY <<<< the FreeRTOS exception.
  12:../freertos/tasks.c **** 
  13:../freertos/tasks.c ****     ***************************************************************************
  14:../freertos/tasks.c ****     >>!   NOTE: The modification to the GPL is included to allow you to     !<<
  15:../freertos/tasks.c ****     >>!   distribute a combined work that includes FreeRTOS without being   !<<
  16:../freertos/tasks.c ****     >>!   obliged to provide the source code for proprietary components     !<<
  17:../freertos/tasks.c ****     >>!   outside of the FreeRTOS kernel.                                   !<<
  18:../freertos/tasks.c ****     ***************************************************************************
  19:../freertos/tasks.c **** 
  20:../freertos/tasks.c ****     FreeRTOS is distributed in the hope that it will be useful, but WITHOUT ANY
  21:../freertos/tasks.c ****     WARRANTY; without even the implied warranty of MERCHANTABILITY or FITNESS
  22:../freertos/tasks.c ****     FOR A PARTICULAR PURPOSE.  Full license text is available on the following
  23:../freertos/tasks.c ****     link: http://www.freertos.org/a00114.html
  24:../freertos/tasks.c **** 
  25:../freertos/tasks.c ****     ***************************************************************************
  26:../freertos/tasks.c ****      *                                                                       *
  27:../freertos/tasks.c ****      *    FreeRTOS provides completely free yet professionally developed,    *
  28:../freertos/tasks.c ****      *    robust, strictly quality controlled, supported, and cross          *
  29:../freertos/tasks.c ****      *    platform software that is more than just the market leader, it     *
  30:../freertos/tasks.c ****      *    is the industry's de facto standard.                               *
  31:../freertos/tasks.c ****      *                                                                       *
  32:../freertos/tasks.c ****      *    Help yourself get started quickly while simultaneously helping     *
  33:../freertos/tasks.c ****      *    to support the FreeRTOS project by purchasing a FreeRTOS           *
  34:../freertos/tasks.c ****      *    tutorial book, reference manual, or both:                          *
  35:../freertos/tasks.c ****      *    http://www.FreeRTOS.org/Documentation                              *
  36:../freertos/tasks.c ****      *                                                                       *
  37:../freertos/tasks.c ****     ***************************************************************************
  38:../freertos/tasks.c **** 
  39:../freertos/tasks.c ****     http://www.FreeRTOS.org/FAQHelp.html - Having a problem?  Start by reading
  40:../freertos/tasks.c ****     the FAQ page "My application does not run, what could be wrong?".  Have you
  41:../freertos/tasks.c ****     defined configASSERT()?
  42:../freertos/tasks.c **** 
  43:../freertos/tasks.c ****     http://www.FreeRTOS.org/support - In return for receiving this top quality
  44:../freertos/tasks.c ****     embedded software for free we request you assist our global community by
  45:../freertos/tasks.c ****     participating in the support forum.
  46:../freertos/tasks.c **** 
  47:../freertos/tasks.c ****     http://www.FreeRTOS.org/training - Investing in training allows your team to
  48:../freertos/tasks.c ****     be as productive as possible as early as possible.  Now you can receive
  49:../freertos/tasks.c ****     FreeRTOS training directly from Richard Barry, CEO of Real Time Engineers
  50:../freertos/tasks.c ****     Ltd, and the world's leading authority on the world's leading RTOS.
  51:../freertos/tasks.c **** 
  52:../freertos/tasks.c ****     http://www.FreeRTOS.org/plus - A selection of FreeRTOS ecosystem products,
  53:../freertos/tasks.c ****     including FreeRTOS+Trace - an indispensable productivity tool, a DOS
  54:../freertos/tasks.c ****     compatible FAT file system, and our tiny thread aware UDP/IP stack.
  55:../freertos/tasks.c **** 
  56:../freertos/tasks.c ****     http://www.FreeRTOS.org/labs - Where new FreeRTOS products go to incubate.
  57:../freertos/tasks.c ****     Come and try FreeRTOS+TCP, our new open source TCP/IP stack for FreeRTOS.
  58:../freertos/tasks.c **** 
  59:../freertos/tasks.c ****     http://www.OpenRTOS.com - Real Time Engineers ltd. license FreeRTOS to High
  60:../freertos/tasks.c ****     Integrity Systems ltd. to sell under the OpenRTOS brand.  Low cost OpenRTOS
  61:../freertos/tasks.c ****     licenses offer ticketed support, indemnification and commercial middleware.
  62:../freertos/tasks.c **** 
  63:../freertos/tasks.c ****     http://www.SafeRTOS.com - High Integrity Systems also provide a safety
  64:../freertos/tasks.c ****     engineered and independently SIL3 certified version for use in safety and
  65:../freertos/tasks.c ****     mission critical applications that require provable dependability.
  66:../freertos/tasks.c **** 
  67:../freertos/tasks.c ****     1 tab == 4 spaces!
  68:../freertos/tasks.c **** */
  69:../freertos/tasks.c **** 
  70:../freertos/tasks.c **** /* Standard includes. */
  71:../freertos/tasks.c **** #include <stdlib.h>
  72:../freertos/tasks.c **** #include <string.h>
  73:../freertos/tasks.c **** 
  74:../freertos/tasks.c **** /* Defining MPU_WRAPPERS_INCLUDED_FROM_API_FILE prevents task.h from redefining
  75:../freertos/tasks.c **** all the API functions to use the MPU wrappers.  That should only be done when
  76:../freertos/tasks.c **** task.h is included from an application file. */
  77:../freertos/tasks.c **** #define MPU_WRAPPERS_INCLUDED_FROM_API_FILE
  78:../freertos/tasks.c **** 
  79:../freertos/tasks.c **** /* FreeRTOS includes. */
  80:../freertos/tasks.c **** #include "FreeRTOS.h"
  81:../freertos/tasks.c **** #include "task.h"
  82:../freertos/tasks.c **** #include "timers.h"
  83:../freertos/tasks.c **** #include "StackMacros.h"
  84:../freertos/tasks.c **** 
  85:../freertos/tasks.c **** /* Lint e961 and e750 are suppressed as a MISRA exception justified because the
  86:../freertos/tasks.c **** MPU ports require MPU_WRAPPERS_INCLUDED_FROM_API_FILE to be defined for the
  87:../freertos/tasks.c **** header files above, but not in this file, in order to generate the correct
  88:../freertos/tasks.c **** privileged Vs unprivileged linkage and placement. */
  89:../freertos/tasks.c **** #undef MPU_WRAPPERS_INCLUDED_FROM_API_FILE /*lint !e961 !e750. */
  90:../freertos/tasks.c **** 
  91:../freertos/tasks.c **** /* Set configUSE_STATS_FORMATTING_FUNCTIONS to 2 to include the stats formatting
  92:../freertos/tasks.c **** functions but without including stdio.h here. */
  93:../freertos/tasks.c **** #if ( configUSE_STATS_FORMATTING_FUNCTIONS == 1 )
  94:../freertos/tasks.c **** 	/* At the bottom of this file are two optional functions that can be used
  95:../freertos/tasks.c **** 	to generate human readable text from the raw data generated by the
  96:../freertos/tasks.c **** 	uxTaskGetSystemState() function.  Note the formatting functions are provided
  97:../freertos/tasks.c **** 	for convenience only, and are NOT considered part of the kernel. */
  98:../freertos/tasks.c **** 	#include <stdio.h>
  99:../freertos/tasks.c **** #endif /* configUSE_STATS_FORMATTING_FUNCTIONS == 1 ) */
 100:../freertos/tasks.c **** 
 101:../freertos/tasks.c **** #if( configUSE_PREEMPTION == 0 )
 102:../freertos/tasks.c **** 	/* If the cooperative scheduler is being used then a yield should not be
 103:../freertos/tasks.c **** 	performed just because a higher priority task has been woken. */
 104:../freertos/tasks.c **** 	#define taskYIELD_IF_USING_PREEMPTION()
 105:../freertos/tasks.c **** #else
 106:../freertos/tasks.c **** 	#define taskYIELD_IF_USING_PREEMPTION() portYIELD_WITHIN_API()
 107:../freertos/tasks.c **** #endif
 108:../freertos/tasks.c **** 
 109:../freertos/tasks.c **** /* Values that can be assigned to the ucNotifyState member of the TCB. */
 110:../freertos/tasks.c **** #define taskNOT_WAITING_NOTIFICATION	( ( uint8_t ) 0 )
 111:../freertos/tasks.c **** #define taskWAITING_NOTIFICATION		( ( uint8_t ) 1 )
 112:../freertos/tasks.c **** #define taskNOTIFICATION_RECEIVED		( ( uint8_t ) 2 )
 113:../freertos/tasks.c **** 
 114:../freertos/tasks.c **** /*
 115:../freertos/tasks.c ****  * The value used to fill the stack of a task when the task is created.  This
 116:../freertos/tasks.c ****  * is used purely for checking the high water mark for tasks.
 117:../freertos/tasks.c ****  */
 118:../freertos/tasks.c **** #define tskSTACK_FILL_BYTE	( 0xa5U )
 119:../freertos/tasks.c **** 
 120:../freertos/tasks.c **** /* Sometimes the FreeRTOSConfig.h settings only allow a task to be created using
 121:../freertos/tasks.c **** dynamically allocated RAM, in which case when any task is deleted it is known
 122:../freertos/tasks.c **** that both the task's stack and TCB need to be freed.  Sometimes the
 123:../freertos/tasks.c **** FreeRTOSConfig.h settings only allow a task to be created using statically
 124:../freertos/tasks.c **** allocated RAM, in which case when any task is deleted it is known that neither
 125:../freertos/tasks.c **** the task's stack or TCB should be freed.  Sometimes the FreeRTOSConfig.h
 126:../freertos/tasks.c **** settings allow a task to be created using either statically or dynamically
 127:../freertos/tasks.c **** allocated RAM, in which case a member of the TCB is used to record whether the
 128:../freertos/tasks.c **** stack and/or TCB were allocated statically or dynamically, so when a task is
 129:../freertos/tasks.c **** deleted the RAM that was allocated dynamically is freed again and no attempt is
 130:../freertos/tasks.c **** made to free the RAM that was allocated statically.
 131:../freertos/tasks.c **** tskSTATIC_AND_DYNAMIC_ALLOCATION_POSSIBLE is only true if it is possible for a
 132:../freertos/tasks.c **** task to be created using either statically or dynamically allocated RAM.  Note
 133:../freertos/tasks.c **** that if portUSING_MPU_WRAPPERS is 1 then a protected task can be created with
 134:../freertos/tasks.c **** a statically allocated stack and a dynamically allocated TCB. */
 135:../freertos/tasks.c **** #define tskSTATIC_AND_DYNAMIC_ALLOCATION_POSSIBLE ( ( ( configSUPPORT_STATIC_ALLOCATION == 1 ) && (
 136:../freertos/tasks.c **** #define tskDYNAMICALLY_ALLOCATED_STACK_AND_TCB 		( ( uint8_t ) 0 )
 137:../freertos/tasks.c **** #define tskSTATICALLY_ALLOCATED_STACK_ONLY 			( ( uint8_t ) 1 )
 138:../freertos/tasks.c **** #define tskSTATICALLY_ALLOCATED_STACK_AND_TCB		( ( uint8_t ) 2 )
 139:../freertos/tasks.c **** 
 140:../freertos/tasks.c **** /*
 141:../freertos/tasks.c ****  * Macros used by vListTask to indicate which state a task is in.
 142:../freertos/tasks.c ****  */
 143:../freertos/tasks.c **** #define tskBLOCKED_CHAR		( 'B' )
 144:../freertos/tasks.c **** #define tskREADY_CHAR		( 'R' )
 145:../freertos/tasks.c **** #define tskDELETED_CHAR		( 'D' )
 146:../freertos/tasks.c **** #define tskSUSPENDED_CHAR	( 'S' )
 147:../freertos/tasks.c **** 
 148:../freertos/tasks.c **** /*
 149:../freertos/tasks.c ****  * Some kernel aware debuggers require the data the debugger needs access to be
 150:../freertos/tasks.c ****  * global, rather than file scope.
 151:../freertos/tasks.c ****  */
 152:../freertos/tasks.c **** #ifdef portREMOVE_STATIC_QUALIFIER
 153:../freertos/tasks.c **** 	#define static
 154:../freertos/tasks.c **** #endif
 155:../freertos/tasks.c **** 
 156:../freertos/tasks.c **** #if ( configUSE_PORT_OPTIMISED_TASK_SELECTION == 0 )
 157:../freertos/tasks.c **** 
 158:../freertos/tasks.c **** 	/* If configUSE_PORT_OPTIMISED_TASK_SELECTION is 0 then task selection is
 159:../freertos/tasks.c **** 	performed in a generic way that is not optimised to any particular
 160:../freertos/tasks.c **** 	microcontroller architecture. */
 161:../freertos/tasks.c **** 
 162:../freertos/tasks.c **** 	/* uxTopReadyPriority holds the priority of the highest priority ready
 163:../freertos/tasks.c **** 	state task. */
 164:../freertos/tasks.c **** 	#define taskRECORD_READY_PRIORITY( uxPriority )														\
 165:../freertos/tasks.c **** 	{																									\
 166:../freertos/tasks.c **** 		if( ( uxPriority ) > uxTopReadyPriority )														\
 167:../freertos/tasks.c **** 		{																								\
 168:../freertos/tasks.c **** 			uxTopReadyPriority = ( uxPriority );														\
 169:../freertos/tasks.c **** 		}																								\
 170:../freertos/tasks.c **** 	} /* taskRECORD_READY_PRIORITY */
 171:../freertos/tasks.c **** 
 172:../freertos/tasks.c **** 	/*-----------------------------------------------------------*/
 173:../freertos/tasks.c **** 
 174:../freertos/tasks.c **** 	#define taskSELECT_HIGHEST_PRIORITY_TASK()															\
 175:../freertos/tasks.c **** 	{																									\
 176:../freertos/tasks.c **** 	UBaseType_t uxTopPriority = uxTopReadyPriority;														\
 177:../freertos/tasks.c **** 																										\
 178:../freertos/tasks.c **** 		/* Find the highest priority queue that contains ready tasks. */								\
 179:../freertos/tasks.c **** 		while( listLIST_IS_EMPTY( &( pxReadyTasksLists[ uxTopPriority ] ) ) )							\
 180:../freertos/tasks.c **** 		{																								\
 181:../freertos/tasks.c **** 			configASSERT( uxTopPriority );																\
 182:../freertos/tasks.c **** 			--uxTopPriority;																			\
 183:../freertos/tasks.c **** 		}																								\
 184:../freertos/tasks.c **** 																										\
 185:../freertos/tasks.c **** 		/* listGET_OWNER_OF_NEXT_ENTRY indexes through the list, so the tasks of						\
 186:../freertos/tasks.c **** 		the	same priority get an equal share of the processor time. */									\
 187:../freertos/tasks.c **** 		listGET_OWNER_OF_NEXT_ENTRY( pxCurrentTCB, &( pxReadyTasksLists[ uxTopPriority ] ) );			\
 188:../freertos/tasks.c **** 		uxTopReadyPriority = uxTopPriority;																\
 189:../freertos/tasks.c **** 	} /* taskSELECT_HIGHEST_PRIORITY_TASK */
 190:../freertos/tasks.c **** 
 191:../freertos/tasks.c **** 	/*-----------------------------------------------------------*/
 192:../freertos/tasks.c **** 
 193:../freertos/tasks.c **** 	/* Define away taskRESET_READY_PRIORITY() and portRESET_READY_PRIORITY() as
 194:../freertos/tasks.c **** 	they are only required when a port optimised method of task selection is
 195:../freertos/tasks.c **** 	being used. */
 196:../freertos/tasks.c **** 	#define taskRESET_READY_PRIORITY( uxPriority )
 197:../freertos/tasks.c **** 	#define portRESET_READY_PRIORITY( uxPriority, uxTopReadyPriority )
 198:../freertos/tasks.c **** 
 199:../freertos/tasks.c **** #else /* configUSE_PORT_OPTIMISED_TASK_SELECTION */
 200:../freertos/tasks.c **** 
 201:../freertos/tasks.c **** 	/* If configUSE_PORT_OPTIMISED_TASK_SELECTION is 1 then task selection is
 202:../freertos/tasks.c **** 	performed in a way that is tailored to the particular microcontroller
 203:../freertos/tasks.c **** 	architecture being used. */
 204:../freertos/tasks.c **** 
 205:../freertos/tasks.c **** 	/* A port optimised version is provided.  Call the port defined macros. */
 206:../freertos/tasks.c **** 	#define taskRECORD_READY_PRIORITY( uxPriority )	portRECORD_READY_PRIORITY( uxPriority, uxTopReadyP
 207:../freertos/tasks.c **** 
 208:../freertos/tasks.c **** 	/*-----------------------------------------------------------*/
 209:../freertos/tasks.c **** 
 210:../freertos/tasks.c **** 	#define taskSELECT_HIGHEST_PRIORITY_TASK()														\
 211:../freertos/tasks.c **** 	{																								\
 212:../freertos/tasks.c **** 	UBaseType_t uxTopPriority;																		\
 213:../freertos/tasks.c **** 																									\
 214:../freertos/tasks.c **** 		/* Find the highest priority list that contains ready tasks. */								\
 215:../freertos/tasks.c **** 		portGET_HIGHEST_PRIORITY( uxTopPriority, uxTopReadyPriority );								\
 216:../freertos/tasks.c **** 		configASSERT( listCURRENT_LIST_LENGTH( &( pxReadyTasksLists[ uxTopPriority ] ) ) > 0 );		\
 217:../freertos/tasks.c **** 		listGET_OWNER_OF_NEXT_ENTRY( pxCurrentTCB, &( pxReadyTasksLists[ uxTopPriority ] ) );		\
 218:../freertos/tasks.c **** 	} /* taskSELECT_HIGHEST_PRIORITY_TASK() */
 219:../freertos/tasks.c **** 
 220:../freertos/tasks.c **** 	/*-----------------------------------------------------------*/
 221:../freertos/tasks.c **** 
 222:../freertos/tasks.c **** 	/* A port optimised version is provided, call it only if the TCB being reset
 223:../freertos/tasks.c **** 	is being referenced from a ready list.  If it is referenced from a delayed
 224:../freertos/tasks.c **** 	or suspended list then it won't be in a ready list. */
 225:../freertos/tasks.c **** 	#define taskRESET_READY_PRIORITY( uxPriority )														\
 226:../freertos/tasks.c **** 	{																									\
 227:../freertos/tasks.c **** 		if( listCURRENT_LIST_LENGTH( &( pxReadyTasksLists[ ( uxPriority ) ] ) ) == ( UBaseType_t ) 0 )	\
 228:../freertos/tasks.c **** 		{																								\
 229:../freertos/tasks.c **** 			portRESET_READY_PRIORITY( ( uxPriority ), ( uxTopReadyPriority ) );							\
 230:../freertos/tasks.c **** 		}																								\
 231:../freertos/tasks.c **** 	}
 232:../freertos/tasks.c **** 
 233:../freertos/tasks.c **** #endif /* configUSE_PORT_OPTIMISED_TASK_SELECTION */
 234:../freertos/tasks.c **** 
 235:../freertos/tasks.c **** /*-----------------------------------------------------------*/
 236:../freertos/tasks.c **** 
 237:../freertos/tasks.c **** /* pxDelayedTaskList and pxOverflowDelayedTaskList are switched when the tick
 238:../freertos/tasks.c **** count overflows. */
 239:../freertos/tasks.c **** #define taskSWITCH_DELAYED_LISTS()																	\
 240:../freertos/tasks.c **** {																									\
 241:../freertos/tasks.c **** 	List_t *pxTemp;																					\
 242:../freertos/tasks.c **** 																									\
 243:../freertos/tasks.c **** 	/* The delayed tasks list should be empty when the lists are switched. */						\
 244:../freertos/tasks.c **** 	configASSERT( ( listLIST_IS_EMPTY( pxDelayedTaskList ) ) );										\
 245:../freertos/tasks.c **** 																									\
 246:../freertos/tasks.c **** 	pxTemp = pxDelayedTaskList;																		\
 247:../freertos/tasks.c **** 	pxDelayedTaskList = pxOverflowDelayedTaskList;													\
 248:../freertos/tasks.c **** 	pxOverflowDelayedTaskList = pxTemp;																\
 249:../freertos/tasks.c **** 	xNumOfOverflows++;																				\
 250:../freertos/tasks.c **** 	prvResetNextTaskUnblockTime();																	\
 251:../freertos/tasks.c **** }
 252:../freertos/tasks.c **** 
 253:../freertos/tasks.c **** /*-----------------------------------------------------------*/
 254:../freertos/tasks.c **** 
 255:../freertos/tasks.c **** /*
 256:../freertos/tasks.c ****  * Place the task represented by pxTCB into the appropriate ready list for
 257:../freertos/tasks.c ****  * the task.  It is inserted at the end of the list.
 258:../freertos/tasks.c ****  */
 259:../freertos/tasks.c **** #define prvAddTaskToReadyList( pxTCB )																\
 260:../freertos/tasks.c **** 	traceMOVED_TASK_TO_READY_STATE( pxTCB );														\
 261:../freertos/tasks.c **** 	taskRECORD_READY_PRIORITY( ( pxTCB )->uxPriority );												\
 262:../freertos/tasks.c **** 	vListInsertEnd( &( pxReadyTasksLists[ ( pxTCB )->uxPriority ] ), &( ( pxTCB )->xStateListItem ) );
 263:../freertos/tasks.c **** 	tracePOST_MOVED_TASK_TO_READY_STATE( pxTCB )
 264:../freertos/tasks.c **** /*-----------------------------------------------------------*/
 265:../freertos/tasks.c **** 
 266:../freertos/tasks.c **** /*
 267:../freertos/tasks.c ****  * Several functions take an TaskHandle_t parameter that can optionally be NULL,
 268:../freertos/tasks.c ****  * where NULL is used to indicate that the handle of the currently executing
 269:../freertos/tasks.c ****  * task should be used in place of the parameter.  This macro simply checks to
 270:../freertos/tasks.c ****  * see if the parameter is NULL and returns a pointer to the appropriate TCB.
 271:../freertos/tasks.c ****  */
 272:../freertos/tasks.c **** #define prvGetTCBFromHandle( pxHandle ) ( ( ( pxHandle ) == NULL ) ? ( TCB_t * ) pxCurrentTCB : ( T
 273:../freertos/tasks.c **** 
 274:../freertos/tasks.c **** /* The item value of the event list item is normally used to hold the priority
 275:../freertos/tasks.c **** of the task to which it belongs (coded to allow it to be held in reverse
 276:../freertos/tasks.c **** priority order).  However, it is occasionally borrowed for other purposes.  It
 277:../freertos/tasks.c **** is important its value is not updated due to a task priority change while it is
 278:../freertos/tasks.c **** being used for another purpose.  The following bit definition is used to inform
 279:../freertos/tasks.c **** the scheduler that the value should not be changed - in which case it is the
 280:../freertos/tasks.c **** responsibility of whichever module is using the value to ensure it gets set back
 281:../freertos/tasks.c **** to its original value when it is released. */
 282:../freertos/tasks.c **** #if( configUSE_16_BIT_TICKS == 1 )
 283:../freertos/tasks.c **** 	#define taskEVENT_LIST_ITEM_VALUE_IN_USE	0x8000U
 284:../freertos/tasks.c **** #else
 285:../freertos/tasks.c **** 	#define taskEVENT_LIST_ITEM_VALUE_IN_USE	0x80000000UL
 286:../freertos/tasks.c **** #endif
 287:../freertos/tasks.c **** 
 288:../freertos/tasks.c **** /*
 289:../freertos/tasks.c ****  * Task control block.  A task control block (TCB) is allocated for each task,
 290:../freertos/tasks.c ****  * and stores task state information, including a pointer to the task's context
 291:../freertos/tasks.c ****  * (the task's run time environment, including register values)
 292:../freertos/tasks.c ****  */
 293:../freertos/tasks.c **** typedef struct tskTaskControlBlock
 294:../freertos/tasks.c **** {
 295:../freertos/tasks.c **** 	volatile StackType_t	*pxTopOfStack;	/*< Points to the location of the last item placed on the task
 296:../freertos/tasks.c **** 
 297:../freertos/tasks.c **** 	#if ( portUSING_MPU_WRAPPERS == 1 )
 298:../freertos/tasks.c **** 		xMPU_SETTINGS	xMPUSettings;		/*< The MPU settings are defined as part of the port layer.  THIS MU
 299:../freertos/tasks.c **** 	#endif
 300:../freertos/tasks.c **** 
 301:../freertos/tasks.c **** 	ListItem_t			xStateListItem;	/*< The list that the state list item of a task is reference from den
 302:../freertos/tasks.c **** 	ListItem_t			xEventListItem;		/*< Used to reference a task from an event list. */
 303:../freertos/tasks.c **** 	UBaseType_t			uxPriority;			/*< The priority of the task.  0 is the lowest priority. */
 304:../freertos/tasks.c **** 	StackType_t			*pxStack;			/*< Points to the start of the stack. */
 305:../freertos/tasks.c **** 	char				pcTaskName[ configMAX_TASK_NAME_LEN ];/*< Descriptive name given to the task when created.
 306:../freertos/tasks.c **** 
 307:../freertos/tasks.c **** 	#if ( ( portSTACK_GROWTH > 0 ) || ( configRECORD_STACK_HIGH_ADDRESS == 1 ) )
 308:../freertos/tasks.c **** 		StackType_t		*pxEndOfStack;		/*< Points to the highest valid address for the stack. */
 309:../freertos/tasks.c **** 	#endif
 310:../freertos/tasks.c **** 
 311:../freertos/tasks.c **** 	#if ( portCRITICAL_NESTING_IN_TCB == 1 )
 312:../freertos/tasks.c **** 		UBaseType_t		uxCriticalNesting;	/*< Holds the critical section nesting depth for ports that do no
 313:../freertos/tasks.c **** 	#endif
 314:../freertos/tasks.c **** 
 315:../freertos/tasks.c **** 	#if ( configUSE_TRACE_FACILITY == 1 )
 316:../freertos/tasks.c **** 		UBaseType_t		uxTCBNumber;		/*< Stores a number that increments each time a TCB is created.  It al
 317:../freertos/tasks.c **** 		UBaseType_t		uxTaskNumber;		/*< Stores a number specifically for use by third party trace code. *
 318:../freertos/tasks.c **** 	#endif
 319:../freertos/tasks.c **** 
 320:../freertos/tasks.c **** 	#if ( configUSE_MUTEXES == 1 )
 321:../freertos/tasks.c **** 		UBaseType_t		uxBasePriority;		/*< The priority last assigned to the task - used by the priority i
 322:../freertos/tasks.c **** 		UBaseType_t		uxMutexesHeld;
 323:../freertos/tasks.c **** 	#endif
 324:../freertos/tasks.c **** 
 325:../freertos/tasks.c **** 	#if ( configUSE_APPLICATION_TASK_TAG == 1 )
 326:../freertos/tasks.c **** 		TaskHookFunction_t pxTaskTag;
 327:../freertos/tasks.c **** 	#endif
 328:../freertos/tasks.c **** 
 329:../freertos/tasks.c **** 	#if( configNUM_THREAD_LOCAL_STORAGE_POINTERS > 0 )
 330:../freertos/tasks.c **** 		void *pvThreadLocalStoragePointers[ configNUM_THREAD_LOCAL_STORAGE_POINTERS ];
 331:../freertos/tasks.c **** 	#endif
 332:../freertos/tasks.c **** 
 333:../freertos/tasks.c **** 	#if( configGENERATE_RUN_TIME_STATS == 1 )
 334:../freertos/tasks.c **** 		uint32_t		ulRunTimeCounter;	/*< Stores the amount of time the task has spent in the Running state
 335:../freertos/tasks.c **** 	#endif
 336:../freertos/tasks.c **** 
 337:../freertos/tasks.c **** 	#if ( configUSE_NEWLIB_REENTRANT == 1 )
 338:../freertos/tasks.c **** 		/* Allocate a Newlib reent structure that is specific to this task.
 339:../freertos/tasks.c **** 		Note Newlib support has been included by popular demand, but is not
 340:../freertos/tasks.c **** 		used by the FreeRTOS maintainers themselves.  FreeRTOS is not
 341:../freertos/tasks.c **** 		responsible for resulting newlib operation.  User must be familiar with
 342:../freertos/tasks.c **** 		newlib and must provide system-wide implementations of the necessary
 343:../freertos/tasks.c **** 		stubs. Be warned that (at the time of writing) the current newlib design
 344:../freertos/tasks.c **** 		implements a system-wide malloc() that must be provided with locks. */
 345:../freertos/tasks.c **** 		struct	_reent xNewLib_reent;
 346:../freertos/tasks.c **** 	#endif
 347:../freertos/tasks.c **** 
 348:../freertos/tasks.c **** 	#if( configUSE_TASK_NOTIFICATIONS == 1 )
 349:../freertos/tasks.c **** 		volatile uint32_t ulNotifiedValue;
 350:../freertos/tasks.c **** 		volatile uint8_t ucNotifyState;
 351:../freertos/tasks.c **** 	#endif
 352:../freertos/tasks.c **** 
 353:../freertos/tasks.c **** 	/* See the comments above the definition of
 354:../freertos/tasks.c **** 	tskSTATIC_AND_DYNAMIC_ALLOCATION_POSSIBLE. */
 355:../freertos/tasks.c **** 	#if( tskSTATIC_AND_DYNAMIC_ALLOCATION_POSSIBLE != 0 )
 356:../freertos/tasks.c **** 		uint8_t	ucStaticallyAllocated; 		/*< Set to pdTRUE if the task is a statically allocated to ensur
 357:../freertos/tasks.c **** 	#endif
 358:../freertos/tasks.c **** 
 359:../freertos/tasks.c **** 	#if( INCLUDE_xTaskAbortDelay == 1 )
 360:../freertos/tasks.c **** 		uint8_t ucDelayAborted;
 361:../freertos/tasks.c **** 	#endif
 362:../freertos/tasks.c **** 
 363:../freertos/tasks.c **** } tskTCB;
 364:../freertos/tasks.c **** 
 365:../freertos/tasks.c **** /* The old tskTCB name is maintained above then typedefed to the new TCB_t name
 366:../freertos/tasks.c **** below to enable the use of older kernel aware debuggers. */
 367:../freertos/tasks.c **** typedef tskTCB TCB_t;
 368:../freertos/tasks.c **** 
 369:../freertos/tasks.c **** /*lint -e956 A manual analysis and inspection has been used to determine which
 370:../freertos/tasks.c **** static variables must be declared volatile. */
 371:../freertos/tasks.c **** 
 372:../freertos/tasks.c **** PRIVILEGED_DATA TCB_t * volatile pxCurrentTCB = NULL;
 373:../freertos/tasks.c **** 
 374:../freertos/tasks.c **** /* Lists for ready and blocked tasks. --------------------*/
 375:../freertos/tasks.c **** PRIVILEGED_DATA static List_t pxReadyTasksLists[ configMAX_PRIORITIES ];/*< Prioritised ready tasks
 376:../freertos/tasks.c **** PRIVILEGED_DATA static List_t xDelayedTaskList1;						/*< Delayed tasks. */
 377:../freertos/tasks.c **** PRIVILEGED_DATA static List_t xDelayedTaskList2;						/*< Delayed tasks (two lists are used - one f
 378:../freertos/tasks.c **** PRIVILEGED_DATA static List_t * volatile pxDelayedTaskList;				/*< Points to the delayed task list 
 379:../freertos/tasks.c **** PRIVILEGED_DATA static List_t * volatile pxOverflowDelayedTaskList;		/*< Points to the delayed task
 380:../freertos/tasks.c **** PRIVILEGED_DATA static List_t xPendingReadyList;						/*< Tasks that have been readied while the sc
 381:../freertos/tasks.c **** 
 382:../freertos/tasks.c **** #if( INCLUDE_vTaskDelete == 1 )
 383:../freertos/tasks.c **** 
 384:../freertos/tasks.c **** 	PRIVILEGED_DATA static List_t xTasksWaitingTermination;				/*< Tasks that have been deleted - but 
 385:../freertos/tasks.c **** 	PRIVILEGED_DATA static volatile UBaseType_t uxDeletedTasksWaitingCleanUp = ( UBaseType_t ) 0U;
 386:../freertos/tasks.c **** 
 387:../freertos/tasks.c **** #endif
 388:../freertos/tasks.c **** 
 389:../freertos/tasks.c **** #if ( INCLUDE_vTaskSuspend == 1 )
 390:../freertos/tasks.c **** 
 391:../freertos/tasks.c **** 	PRIVILEGED_DATA static List_t xSuspendedTaskList;					/*< Tasks that are currently suspended. */
 392:../freertos/tasks.c **** 
 393:../freertos/tasks.c **** #endif
 394:../freertos/tasks.c **** 
 395:../freertos/tasks.c **** /* Other file private variables. --------------------------------*/
 396:../freertos/tasks.c **** PRIVILEGED_DATA static volatile UBaseType_t uxCurrentNumberOfTasks 	= ( UBaseType_t ) 0U;
 397:../freertos/tasks.c **** PRIVILEGED_DATA static volatile TickType_t xTickCount 				= ( TickType_t ) 0U;
 398:../freertos/tasks.c **** PRIVILEGED_DATA static volatile UBaseType_t uxTopReadyPriority 		= tskIDLE_PRIORITY;
 399:../freertos/tasks.c **** PRIVILEGED_DATA static volatile BaseType_t xSchedulerRunning 		= pdFALSE;
 400:../freertos/tasks.c **** PRIVILEGED_DATA static volatile UBaseType_t uxPendedTicks 			= ( UBaseType_t ) 0U;
 401:../freertos/tasks.c **** PRIVILEGED_DATA static volatile BaseType_t xYieldPending 			= pdFALSE;
 402:../freertos/tasks.c **** PRIVILEGED_DATA static volatile BaseType_t xNumOfOverflows 			= ( BaseType_t ) 0;
 403:../freertos/tasks.c **** PRIVILEGED_DATA static UBaseType_t uxTaskNumber 					= ( UBaseType_t ) 0U;
 404:../freertos/tasks.c **** PRIVILEGED_DATA static volatile TickType_t xNextTaskUnblockTime		= ( TickType_t ) 0U; /* Initialise
 405:../freertos/tasks.c **** PRIVILEGED_DATA static TaskHandle_t xIdleTaskHandle					= NULL;			/*< Holds the handle of the idle 
 406:../freertos/tasks.c **** 
 407:../freertos/tasks.c **** /* Context switches are held pending while the scheduler is suspended.  Also,
 408:../freertos/tasks.c **** interrupts must not manipulate the xStateListItem of a TCB, or any of the
 409:../freertos/tasks.c **** lists the xStateListItem can be referenced from, if the scheduler is suspended.
 410:../freertos/tasks.c **** If an interrupt needs to unblock a task while the scheduler is suspended then it
 411:../freertos/tasks.c **** moves the task's event list item into the xPendingReadyList, ready for the
 412:../freertos/tasks.c **** kernel to move the task from the pending ready list into the real ready list
 413:../freertos/tasks.c **** when the scheduler is unsuspended.  The pending ready list itself can only be
 414:../freertos/tasks.c **** accessed from a critical section. */
 415:../freertos/tasks.c **** PRIVILEGED_DATA static volatile UBaseType_t uxSchedulerSuspended	= ( UBaseType_t ) pdFALSE;
 416:../freertos/tasks.c **** 
 417:../freertos/tasks.c **** #if ( configGENERATE_RUN_TIME_STATS == 1 )
 418:../freertos/tasks.c **** 
 419:../freertos/tasks.c **** 	PRIVILEGED_DATA static uint32_t ulTaskSwitchedInTime = 0UL;	/*< Holds the value of a timer/counter
 420:../freertos/tasks.c **** 	PRIVILEGED_DATA static uint32_t ulTotalRunTime = 0UL;		/*< Holds the total amount of execution tim
 421:../freertos/tasks.c **** 
 422:../freertos/tasks.c **** #endif
 423:../freertos/tasks.c **** 
 424:../freertos/tasks.c **** /*lint +e956 */
 425:../freertos/tasks.c **** 
 426:../freertos/tasks.c **** /*-----------------------------------------------------------*/
 427:../freertos/tasks.c **** 
 428:../freertos/tasks.c **** /* Callback function prototypes. --------------------------*/
 429:../freertos/tasks.c **** #if(  configCHECK_FOR_STACK_OVERFLOW > 0 )
 430:../freertos/tasks.c **** 	extern void vApplicationStackOverflowHook( TaskHandle_t xTask, char *pcTaskName );
 431:../freertos/tasks.c **** #endif
 432:../freertos/tasks.c **** 
 433:../freertos/tasks.c **** #if( configUSE_TICK_HOOK > 0 )
 434:../freertos/tasks.c **** 	extern void vApplicationTickHook( void );
 435:../freertos/tasks.c **** #endif
 436:../freertos/tasks.c **** 
 437:../freertos/tasks.c **** #if( configSUPPORT_STATIC_ALLOCATION == 1 )
 438:../freertos/tasks.c **** 	extern void vApplicationGetIdleTaskMemory( StaticTask_t **ppxIdleTaskTCBBuffer, StackType_t **ppxI
 439:../freertos/tasks.c **** #endif
 440:../freertos/tasks.c **** 
 441:../freertos/tasks.c **** /* File private functions. --------------------------------*/
 442:../freertos/tasks.c **** 
 443:../freertos/tasks.c **** /**
 444:../freertos/tasks.c ****  * Utility task that simply returns pdTRUE if the task referenced by xTask is
 445:../freertos/tasks.c ****  * currently in the Suspended state, or pdFALSE if the task referenced by xTask
 446:../freertos/tasks.c ****  * is in any other state.
 447:../freertos/tasks.c ****  */
 448:../freertos/tasks.c **** #if ( INCLUDE_vTaskSuspend == 1 )
 449:../freertos/tasks.c **** 	static BaseType_t prvTaskIsTaskSuspended( const TaskHandle_t xTask ) PRIVILEGED_FUNCTION;
 450:../freertos/tasks.c **** #endif /* INCLUDE_vTaskSuspend */
 451:../freertos/tasks.c **** 
 452:../freertos/tasks.c **** /*
 453:../freertos/tasks.c ****  * Utility to ready all the lists used by the scheduler.  This is called
 454:../freertos/tasks.c ****  * automatically upon the creation of the first task.
 455:../freertos/tasks.c ****  */
 456:../freertos/tasks.c **** static void prvInitialiseTaskLists( void ) PRIVILEGED_FUNCTION;
 457:../freertos/tasks.c **** 
 458:../freertos/tasks.c **** /*
 459:../freertos/tasks.c ****  * The idle task, which as all tasks is implemented as a never ending loop.
 460:../freertos/tasks.c ****  * The idle task is automatically created and added to the ready lists upon
 461:../freertos/tasks.c ****  * creation of the first user task.
 462:../freertos/tasks.c ****  *
 463:../freertos/tasks.c ****  * The portTASK_FUNCTION_PROTO() macro is used to allow port/compiler specific
 464:../freertos/tasks.c ****  * language extensions.  The equivalent prototype for this function is:
 465:../freertos/tasks.c ****  *
 466:../freertos/tasks.c ****  * void prvIdleTask( void *pvParameters );
 467:../freertos/tasks.c ****  *
 468:../freertos/tasks.c ****  */
 469:../freertos/tasks.c **** static portTASK_FUNCTION_PROTO( prvIdleTask, pvParameters );
 470:../freertos/tasks.c **** 
 471:../freertos/tasks.c **** /*
 472:../freertos/tasks.c ****  * Utility to free all memory allocated by the scheduler to hold a TCB,
 473:../freertos/tasks.c ****  * including the stack pointed to by the TCB.
 474:../freertos/tasks.c ****  *
 475:../freertos/tasks.c ****  * This does not free memory allocated by the task itself (i.e. memory
 476:../freertos/tasks.c ****  * allocated by calls to pvPortMalloc from within the tasks application code).
 477:../freertos/tasks.c ****  */
 478:../freertos/tasks.c **** #if ( INCLUDE_vTaskDelete == 1 )
 479:../freertos/tasks.c **** 
 480:../freertos/tasks.c **** 	static void prvDeleteTCB( TCB_t *pxTCB ) PRIVILEGED_FUNCTION;
 481:../freertos/tasks.c **** 
 482:../freertos/tasks.c **** #endif
 483:../freertos/tasks.c **** 
 484:../freertos/tasks.c **** /*
 485:../freertos/tasks.c ****  * Used only by the idle task.  This checks to see if anything has been placed
 486:../freertos/tasks.c ****  * in the list of tasks waiting to be deleted.  If so the task is cleaned up
 487:../freertos/tasks.c ****  * and its TCB deleted.
 488:../freertos/tasks.c ****  */
 489:../freertos/tasks.c **** static void prvCheckTasksWaitingTermination( void ) PRIVILEGED_FUNCTION;
 490:../freertos/tasks.c **** 
 491:../freertos/tasks.c **** /*
 492:../freertos/tasks.c ****  * The currently executing task is entering the Blocked state.  Add the task to
 493:../freertos/tasks.c ****  * either the current or the overflow delayed task list.
 494:../freertos/tasks.c ****  */
 495:../freertos/tasks.c **** static void prvAddCurrentTaskToDelayedList( TickType_t xTicksToWait, const BaseType_t xCanBlockInde
 496:../freertos/tasks.c **** 
 497:../freertos/tasks.c **** /*
 498:../freertos/tasks.c ****  * Fills an TaskStatus_t structure with information on each task that is
 499:../freertos/tasks.c ****  * referenced from the pxList list (which may be a ready list, a delayed list,
 500:../freertos/tasks.c ****  * a suspended list, etc.).
 501:../freertos/tasks.c ****  *
 502:../freertos/tasks.c ****  * THIS FUNCTION IS INTENDED FOR DEBUGGING ONLY, AND SHOULD NOT BE CALLED FROM
 503:../freertos/tasks.c ****  * NORMAL APPLICATION CODE.
 504:../freertos/tasks.c ****  */
 505:../freertos/tasks.c **** #if ( configUSE_TRACE_FACILITY == 1 )
 506:../freertos/tasks.c **** 
 507:../freertos/tasks.c **** 	static UBaseType_t prvListTasksWithinSingleList( TaskStatus_t *pxTaskStatusArray, List_t *pxList, 
 508:../freertos/tasks.c **** 
 509:../freertos/tasks.c **** #endif
 510:../freertos/tasks.c **** 
 511:../freertos/tasks.c **** /*
 512:../freertos/tasks.c ****  * Searches pxList for a task with name pcNameToQuery - returning a handle to
 513:../freertos/tasks.c ****  * the task if it is found, or NULL if the task is not found.
 514:../freertos/tasks.c ****  */
 515:../freertos/tasks.c **** #if ( INCLUDE_xTaskGetHandle == 1 )
 516:../freertos/tasks.c **** 
 517:../freertos/tasks.c **** 	static TCB_t *prvSearchForNameWithinSingleList( List_t *pxList, const char pcNameToQuery[] ) PRIVI
 518:../freertos/tasks.c **** 
 519:../freertos/tasks.c **** #endif
 520:../freertos/tasks.c **** 
 521:../freertos/tasks.c **** /*
 522:../freertos/tasks.c ****  * When a task is created, the stack of the task is filled with a known value.
 523:../freertos/tasks.c ****  * This function determines the 'high water mark' of the task stack by
 524:../freertos/tasks.c ****  * determining how much of the stack remains at the original preset value.
 525:../freertos/tasks.c ****  */
 526:../freertos/tasks.c **** #if ( ( configUSE_TRACE_FACILITY == 1 ) || ( INCLUDE_uxTaskGetStackHighWaterMark == 1 ) )
 527:../freertos/tasks.c **** 
 528:../freertos/tasks.c **** 	static uint16_t prvTaskCheckFreeStackSpace( const uint8_t * pucStackByte ) PRIVILEGED_FUNCTION;
 529:../freertos/tasks.c **** 
 530:../freertos/tasks.c **** #endif
 531:../freertos/tasks.c **** 
 532:../freertos/tasks.c **** /*
 533:../freertos/tasks.c ****  * Return the amount of time, in ticks, that will pass before the kernel will
 534:../freertos/tasks.c ****  * next move a task from the Blocked state to the Running state.
 535:../freertos/tasks.c ****  *
 536:../freertos/tasks.c ****  * This conditional compilation should use inequality to 0, not equality to 1.
 537:../freertos/tasks.c ****  * This is to ensure portSUPPRESS_TICKS_AND_SLEEP() can be called when user
 538:../freertos/tasks.c ****  * defined low power mode implementations require configUSE_TICKLESS_IDLE to be
 539:../freertos/tasks.c ****  * set to a value other than 1.
 540:../freertos/tasks.c ****  */
 541:../freertos/tasks.c **** #if ( configUSE_TICKLESS_IDLE != 0 )
 542:../freertos/tasks.c **** 
 543:../freertos/tasks.c **** 	static TickType_t prvGetExpectedIdleTime( void ) PRIVILEGED_FUNCTION;
 544:../freertos/tasks.c **** 
 545:../freertos/tasks.c **** #endif
 546:../freertos/tasks.c **** 
 547:../freertos/tasks.c **** /*
 548:../freertos/tasks.c ****  * Set xNextTaskUnblockTime to the time at which the next Blocked state task
 549:../freertos/tasks.c ****  * will exit the Blocked state.
 550:../freertos/tasks.c ****  */
 551:../freertos/tasks.c **** static void prvResetNextTaskUnblockTime( void );
 552:../freertos/tasks.c **** 
 553:../freertos/tasks.c **** #if ( ( configUSE_TRACE_FACILITY == 1 ) && ( configUSE_STATS_FORMATTING_FUNCTIONS > 0 ) )
 554:../freertos/tasks.c **** 
 555:../freertos/tasks.c **** 	/*
 556:../freertos/tasks.c **** 	 * Helper function used to pad task names with spaces when printing out
 557:../freertos/tasks.c **** 	 * human readable tables of task information.
 558:../freertos/tasks.c **** 	 */
 559:../freertos/tasks.c **** 	static char *prvWriteNameToBuffer( char *pcBuffer, const char *pcTaskName ) PRIVILEGED_FUNCTION;
 560:../freertos/tasks.c **** 
 561:../freertos/tasks.c **** #endif
 562:../freertos/tasks.c **** 
 563:../freertos/tasks.c **** /*
 564:../freertos/tasks.c ****  * Called after a Task_t structure has been allocated either statically or
 565:../freertos/tasks.c ****  * dynamically to fill in the structure's members.
 566:../freertos/tasks.c ****  */
 567:../freertos/tasks.c **** static void prvInitialiseNewTask( 	TaskFunction_t pxTaskCode,
 568:../freertos/tasks.c **** 									const char * const pcName,
 569:../freertos/tasks.c **** 									const uint32_t ulStackDepth,
 570:../freertos/tasks.c **** 									void * const pvParameters,
 571:../freertos/tasks.c **** 									UBaseType_t uxPriority,
 572:../freertos/tasks.c **** 									TaskHandle_t * const pxCreatedTask,
 573:../freertos/tasks.c **** 									TCB_t *pxNewTCB,
 574:../freertos/tasks.c **** 									const MemoryRegion_t * const xRegions ) PRIVILEGED_FUNCTION; /*lint !e971 Unqualified char
 575:../freertos/tasks.c **** 
 576:../freertos/tasks.c **** /*
 577:../freertos/tasks.c ****  * Called after a new task has been created and initialised to place the task
 578:../freertos/tasks.c ****  * under the control of the scheduler.
 579:../freertos/tasks.c ****  */
 580:../freertos/tasks.c **** static void prvAddNewTaskToReadyList( TCB_t *pxNewTCB ) PRIVILEGED_FUNCTION;
 581:../freertos/tasks.c **** 
 582:../freertos/tasks.c **** /*-----------------------------------------------------------*/
 583:../freertos/tasks.c **** 
 584:../freertos/tasks.c **** #if( configSUPPORT_STATIC_ALLOCATION == 1 )
 585:../freertos/tasks.c **** 
 586:../freertos/tasks.c **** 	TaskHandle_t xTaskCreateStatic(	TaskFunction_t pxTaskCode,
 587:../freertos/tasks.c **** 									const char * const pcName,
 588:../freertos/tasks.c **** 									const uint32_t ulStackDepth,
 589:../freertos/tasks.c **** 									void * const pvParameters,
 590:../freertos/tasks.c **** 									UBaseType_t uxPriority,
 591:../freertos/tasks.c **** 									StackType_t * const puxStackBuffer,
 592:../freertos/tasks.c **** 									StaticTask_t * const pxTaskBuffer ) /*lint !e971 Unqualified char types are allowed for st
 593:../freertos/tasks.c **** 	{
 594:../freertos/tasks.c **** 	TCB_t *pxNewTCB;
 595:../freertos/tasks.c **** 	TaskHandle_t xReturn;
 596:../freertos/tasks.c **** 
 597:../freertos/tasks.c **** 		configASSERT( puxStackBuffer != NULL );
 598:../freertos/tasks.c **** 		configASSERT( pxTaskBuffer != NULL );
 599:../freertos/tasks.c **** 
 600:../freertos/tasks.c **** 		if( ( pxTaskBuffer != NULL ) && ( puxStackBuffer != NULL ) )
 601:../freertos/tasks.c **** 		{
 602:../freertos/tasks.c **** 			/* The memory used for the task's TCB and stack are passed into this
 603:../freertos/tasks.c **** 			function - use them. */
 604:../freertos/tasks.c **** 			pxNewTCB = ( TCB_t * ) pxTaskBuffer; /*lint !e740 Unusual cast is ok as the structures are desig
 605:../freertos/tasks.c **** 			pxNewTCB->pxStack = ( StackType_t * ) puxStackBuffer;
 606:../freertos/tasks.c **** 
 607:../freertos/tasks.c **** 			#if( tskSTATIC_AND_DYNAMIC_ALLOCATION_POSSIBLE != 0 )
 608:../freertos/tasks.c **** 			{
 609:../freertos/tasks.c **** 				/* Tasks can be created statically or dynamically, so note this
 610:../freertos/tasks.c **** 				task was created statically in case the task is later deleted. */
 611:../freertos/tasks.c **** 				pxNewTCB->ucStaticallyAllocated = tskSTATICALLY_ALLOCATED_STACK_AND_TCB;
 612:../freertos/tasks.c **** 			}
 613:../freertos/tasks.c **** 			#endif /* configSUPPORT_DYNAMIC_ALLOCATION */
 614:../freertos/tasks.c **** 
 615:../freertos/tasks.c **** 			prvInitialiseNewTask( pxTaskCode, pcName, ulStackDepth, pvParameters, uxPriority, &xReturn, pxNe
 616:../freertos/tasks.c **** 			prvAddNewTaskToReadyList( pxNewTCB );
 617:../freertos/tasks.c **** 		}
 618:../freertos/tasks.c **** 		else
 619:../freertos/tasks.c **** 		{
 620:../freertos/tasks.c **** 			xReturn = NULL;
 621:../freertos/tasks.c **** 		}
 622:../freertos/tasks.c **** 
 623:../freertos/tasks.c **** 		return xReturn;
 624:../freertos/tasks.c **** 	}
 625:../freertos/tasks.c **** 
 626:../freertos/tasks.c **** #endif /* SUPPORT_STATIC_ALLOCATION */
 627:../freertos/tasks.c **** /*-----------------------------------------------------------*/
 628:../freertos/tasks.c **** 
 629:../freertos/tasks.c **** #if( portUSING_MPU_WRAPPERS == 1 )
 630:../freertos/tasks.c **** 
 631:../freertos/tasks.c **** 	BaseType_t xTaskCreateRestricted( const TaskParameters_t * const pxTaskDefinition, TaskHandle_t *p
 632:../freertos/tasks.c **** 	{
 633:../freertos/tasks.c **** 	TCB_t *pxNewTCB;
 634:../freertos/tasks.c **** 	BaseType_t xReturn = errCOULD_NOT_ALLOCATE_REQUIRED_MEMORY;
 635:../freertos/tasks.c **** 
 636:../freertos/tasks.c **** 		configASSERT( pxTaskDefinition->puxStackBuffer );
 637:../freertos/tasks.c **** 
 638:../freertos/tasks.c **** 		if( pxTaskDefinition->puxStackBuffer != NULL )
 639:../freertos/tasks.c **** 		{
 640:../freertos/tasks.c **** 			/* Allocate space for the TCB.  Where the memory comes from depends
 641:../freertos/tasks.c **** 			on the implementation of the port malloc function and whether or
 642:../freertos/tasks.c **** 			not static allocation is being used. */
 643:../freertos/tasks.c **** 			pxNewTCB = ( TCB_t * ) pvPortMalloc( sizeof( TCB_t ) );
 644:../freertos/tasks.c **** 
 645:../freertos/tasks.c **** 			if( pxNewTCB != NULL )
 646:../freertos/tasks.c **** 			{
 647:../freertos/tasks.c **** 				/* Store the stack location in the TCB. */
 648:../freertos/tasks.c **** 				pxNewTCB->pxStack = pxTaskDefinition->puxStackBuffer;
 649:../freertos/tasks.c **** 
 650:../freertos/tasks.c **** 				/* Tasks can be created statically or dynamically, so note
 651:../freertos/tasks.c **** 				this task had a statically allocated stack in case it is
 652:../freertos/tasks.c **** 				later deleted.  The TCB was allocated dynamically. */
 653:../freertos/tasks.c **** 				pxNewTCB->ucStaticallyAllocated = tskSTATICALLY_ALLOCATED_STACK_ONLY;
 654:../freertos/tasks.c **** 
 655:../freertos/tasks.c **** 				prvInitialiseNewTask(	pxTaskDefinition->pvTaskCode,
 656:../freertos/tasks.c **** 										pxTaskDefinition->pcName,
 657:../freertos/tasks.c **** 										( uint32_t ) pxTaskDefinition->usStackDepth,
 658:../freertos/tasks.c **** 										pxTaskDefinition->pvParameters,
 659:../freertos/tasks.c **** 										pxTaskDefinition->uxPriority,
 660:../freertos/tasks.c **** 										pxCreatedTask, pxNewTCB,
 661:../freertos/tasks.c **** 										pxTaskDefinition->xRegions );
 662:../freertos/tasks.c **** 
 663:../freertos/tasks.c **** 				prvAddNewTaskToReadyList( pxNewTCB );
 664:../freertos/tasks.c **** 				xReturn = pdPASS;
 665:../freertos/tasks.c **** 			}
 666:../freertos/tasks.c **** 		}
 667:../freertos/tasks.c **** 
 668:../freertos/tasks.c **** 		return xReturn;
 669:../freertos/tasks.c **** 	}
 670:../freertos/tasks.c **** 
 671:../freertos/tasks.c **** #endif /* portUSING_MPU_WRAPPERS */
 672:../freertos/tasks.c **** /*-----------------------------------------------------------*/
 673:../freertos/tasks.c **** 
 674:../freertos/tasks.c **** #if( configSUPPORT_DYNAMIC_ALLOCATION == 1 )
 675:../freertos/tasks.c **** 
 676:../freertos/tasks.c **** 	BaseType_t xTaskCreate(	TaskFunction_t pxTaskCode,
 677:../freertos/tasks.c **** 							const char * const pcName,
 678:../freertos/tasks.c **** 							const uint16_t usStackDepth,
 679:../freertos/tasks.c **** 							void * const pvParameters,
 680:../freertos/tasks.c **** 							UBaseType_t uxPriority,
 681:../freertos/tasks.c **** 							TaskHandle_t * const pxCreatedTask ) /*lint !e971 Unqualified char types are allowed for str
 682:../freertos/tasks.c **** 	{
 153              		.loc 1 682 0
 154              		.cfi_startproc
 155 0000 90B5     		push	{r4, r7, lr}
 156              		.cfi_def_cfa_offset 12
 157              		.cfi_offset 4, -12
 158              		.cfi_offset 7, -8
 159              		.cfi_offset 14, -4
 160 0002 8DB0     		sub	sp, sp, #52
 161              		.cfi_def_cfa_offset 64
 162 0004 04AF     		add	r7, sp, #16
 163              		.cfi_def_cfa 7, 48
 164 0006 F860     		str	r0, [r7, #12]
 165 0008 B960     		str	r1, [r7, #8]
 166 000a 3B60     		str	r3, [r7]
 167 000c BB1D     		add	r3, r7, #6
 168 000e 1A80     		strh	r2, [r3]
 169              	.LBB2:
 683:../freertos/tasks.c **** 	TCB_t *pxNewTCB;
 684:../freertos/tasks.c **** 	BaseType_t xReturn;
 685:../freertos/tasks.c **** 
 686:../freertos/tasks.c **** 		/* If the stack grows down then allocate the stack then the TCB so the stack
 687:../freertos/tasks.c **** 		does not grow into the TCB.  Likewise if the stack grows up then allocate
 688:../freertos/tasks.c **** 		the TCB then the stack. */
 689:../freertos/tasks.c **** 		#if( portSTACK_GROWTH > 0 )
 690:../freertos/tasks.c **** 		{
 691:../freertos/tasks.c **** 			/* Allocate space for the TCB.  Where the memory comes from depends on
 692:../freertos/tasks.c **** 			the implementation of the port malloc function and whether or not static
 693:../freertos/tasks.c **** 			allocation is being used. */
 694:../freertos/tasks.c **** 			pxNewTCB = ( TCB_t * ) pvPortMalloc( sizeof( TCB_t ) );
 695:../freertos/tasks.c **** 
 696:../freertos/tasks.c **** 			if( pxNewTCB != NULL )
 697:../freertos/tasks.c **** 			{
 698:../freertos/tasks.c **** 				/* Allocate space for the stack used by the task being created.
 699:../freertos/tasks.c **** 				The base of the stack memory stored in the TCB so the task can
 700:../freertos/tasks.c **** 				be deleted later if required. */
 701:../freertos/tasks.c **** 				pxNewTCB->pxStack = ( StackType_t * ) pvPortMalloc( ( ( ( size_t ) usStackDepth ) * sizeof( Sta
 702:../freertos/tasks.c **** 
 703:../freertos/tasks.c **** 				if( pxNewTCB->pxStack == NULL )
 704:../freertos/tasks.c **** 				{
 705:../freertos/tasks.c **** 					/* Could not allocate the stack.  Delete the allocated TCB. */
 706:../freertos/tasks.c **** 					vPortFree( pxNewTCB );
 707:../freertos/tasks.c **** 					pxNewTCB = NULL;
 708:../freertos/tasks.c **** 				}
 709:../freertos/tasks.c **** 			}
 710:../freertos/tasks.c **** 		}
 711:../freertos/tasks.c **** 		#else /* portSTACK_GROWTH */
 712:../freertos/tasks.c **** 		{
 713:../freertos/tasks.c **** 		StackType_t *pxStack;
 714:../freertos/tasks.c **** 
 715:../freertos/tasks.c **** 			/* Allocate space for the stack used by the task being created. */
 716:../freertos/tasks.c **** 			pxStack = ( StackType_t * ) pvPortMalloc( ( ( ( size_t ) usStackDepth ) * sizeof( StackType_t ) 
 170              		.loc 1 716 0
 171 0010 BB1D     		add	r3, r7, #6
 172 0012 1B88     		ldrh	r3, [r3]
 173 0014 9B00     		lsl	r3, r3, #2
 174 0016 181C     		mov	r0, r3
 175 0018 FFF7FEFF 		bl	pvPortMalloc
 176 001c 031C     		mov	r3, r0
 177 001e 7B61     		str	r3, [r7, #20]
 717:../freertos/tasks.c **** 
 718:../freertos/tasks.c **** 			if( pxStack != NULL )
 178              		.loc 1 718 0
 179 0020 7B69     		ldr	r3, [r7, #20]
 180 0022 002B     		cmp	r3, #0
 181 0024 10D0     		beq	.L2
 719:../freertos/tasks.c **** 			{
 720:../freertos/tasks.c **** 				/* Allocate space for the TCB. */
 721:../freertos/tasks.c **** 				pxNewTCB = ( TCB_t * ) pvPortMalloc( sizeof( TCB_t ) ); /*lint !e961 MISRA exception as the cas
 182              		.loc 1 721 0
 183 0026 7420     		mov	r0, #116
 184 0028 FFF7FEFF 		bl	pvPortMalloc
 185 002c 031C     		mov	r3, r0
 186 002e FB61     		str	r3, [r7, #28]
 722:../freertos/tasks.c **** 
 723:../freertos/tasks.c **** 				if( pxNewTCB != NULL )
 187              		.loc 1 723 0
 188 0030 FB69     		ldr	r3, [r7, #28]
 189 0032 002B     		cmp	r3, #0
 190 0034 03D0     		beq	.L3
 724:../freertos/tasks.c **** 				{
 725:../freertos/tasks.c **** 					/* Store the stack location in the TCB. */
 726:../freertos/tasks.c **** 					pxNewTCB->pxStack = pxStack;
 191              		.loc 1 726 0
 192 0036 FB69     		ldr	r3, [r7, #28]
 193 0038 7A69     		ldr	r2, [r7, #20]
 194 003a 1A63     		str	r2, [r3, #48]
 195 003c 06E0     		b	.L5
 196              	.L3:
 727:../freertos/tasks.c **** 				}
 728:../freertos/tasks.c **** 				else
 729:../freertos/tasks.c **** 				{
 730:../freertos/tasks.c **** 					/* The stack cannot be used as the TCB was not created.  Free
 731:../freertos/tasks.c **** 					it again. */
 732:../freertos/tasks.c **** 					vPortFree( pxStack );
 197              		.loc 1 732 0
 198 003e 7B69     		ldr	r3, [r7, #20]
 199 0040 181C     		mov	r0, r3
 200 0042 FFF7FEFF 		bl	vPortFree
 201 0046 01E0     		b	.L5
 202              	.L2:
 733:../freertos/tasks.c **** 				}
 734:../freertos/tasks.c **** 			}
 735:../freertos/tasks.c **** 			else
 736:../freertos/tasks.c **** 			{
 737:../freertos/tasks.c **** 				pxNewTCB = NULL;
 203              		.loc 1 737 0
 204 0048 0023     		mov	r3, #0
 205 004a FB61     		str	r3, [r7, #28]
 206              	.L5:
 207              	.LBE2:
 738:../freertos/tasks.c **** 			}
 739:../freertos/tasks.c **** 		}
 740:../freertos/tasks.c **** 		#endif /* portSTACK_GROWTH */
 741:../freertos/tasks.c **** 
 742:../freertos/tasks.c **** 		if( pxNewTCB != NULL )
 208              		.loc 1 742 0
 209 004c FB69     		ldr	r3, [r7, #28]
 210 004e 002B     		cmp	r3, #0
 211 0050 15D0     		beq	.L6
 743:../freertos/tasks.c **** 		{
 744:../freertos/tasks.c **** 			#if( tskSTATIC_AND_DYNAMIC_ALLOCATION_POSSIBLE != 0 )
 745:../freertos/tasks.c **** 			{
 746:../freertos/tasks.c **** 				/* Tasks can be created statically or dynamically, so note this
 747:../freertos/tasks.c **** 				task was created dynamically in case it is later deleted. */
 748:../freertos/tasks.c **** 				pxNewTCB->ucStaticallyAllocated = tskDYNAMICALLY_ALLOCATED_STACK_AND_TCB;
 749:../freertos/tasks.c **** 			}
 750:../freertos/tasks.c **** 			#endif /* configSUPPORT_STATIC_ALLOCATION */
 751:../freertos/tasks.c **** 
 752:../freertos/tasks.c **** 			prvInitialiseNewTask( pxTaskCode, pcName, ( uint32_t ) usStackDepth, pvParameters, uxPriority, p
 212              		.loc 1 752 0
 213 0052 BB1D     		add	r3, r7, #6
 214 0054 1A88     		ldrh	r2, [r3]
 215 0056 F868     		ldr	r0, [r7, #12]
 216 0058 B968     		ldr	r1, [r7, #8]
 217 005a 3B68     		ldr	r3, [r7]
 218 005c 3C6B     		ldr	r4, [r7, #48]
 219 005e 0094     		str	r4, [sp]
 220 0060 7C6B     		ldr	r4, [r7, #52]
 221 0062 0194     		str	r4, [sp, #4]
 222 0064 FC69     		ldr	r4, [r7, #28]
 223 0066 0294     		str	r4, [sp, #8]
 224 0068 0024     		mov	r4, #0
 225 006a 0394     		str	r4, [sp, #12]
 226 006c FFF7FEFF 		bl	prvInitialiseNewTask
 753:../freertos/tasks.c **** 			prvAddNewTaskToReadyList( pxNewTCB );
 227              		.loc 1 753 0
 228 0070 FB69     		ldr	r3, [r7, #28]
 229 0072 181C     		mov	r0, r3
 230 0074 FFF7FEFF 		bl	prvAddNewTaskToReadyList
 754:../freertos/tasks.c **** 			xReturn = pdPASS;
 231              		.loc 1 754 0
 232 0078 0123     		mov	r3, #1
 233 007a BB61     		str	r3, [r7, #24]
 234 007c 02E0     		b	.L7
 235              	.L6:
 755:../freertos/tasks.c **** 		}
 756:../freertos/tasks.c **** 		else
 757:../freertos/tasks.c **** 		{
 758:../freertos/tasks.c **** 			xReturn = errCOULD_NOT_ALLOCATE_REQUIRED_MEMORY;
 236              		.loc 1 758 0
 237 007e 0123     		mov	r3, #1
 238 0080 5B42     		neg	r3, r3
 239 0082 BB61     		str	r3, [r7, #24]
 240              	.L7:
 759:../freertos/tasks.c **** 		}
 760:../freertos/tasks.c **** 
 761:../freertos/tasks.c **** 		return xReturn;
 241              		.loc 1 761 0
 242 0084 BB69     		ldr	r3, [r7, #24]
 762:../freertos/tasks.c **** 	}
 243              		.loc 1 762 0
 244 0086 181C     		mov	r0, r3
 245 0088 BD46     		mov	sp, r7
 246 008a 09B0     		add	sp, sp, #36
 247              		@ sp needed
 248 008c 90BD     		pop	{r4, r7, pc}
 249              		.cfi_endproc
 250              	.LFE0:
 252 008e C046     		.section	.text.prvInitialiseNewTask,"ax",%progbits
 253              		.align	2
 254              		.code	16
 255              		.thumb_func
 257              	prvInitialiseNewTask:
 258              	.LFB1:
 763:../freertos/tasks.c **** 
 764:../freertos/tasks.c **** #endif /* configSUPPORT_DYNAMIC_ALLOCATION */
 765:../freertos/tasks.c **** /*-----------------------------------------------------------*/
 766:../freertos/tasks.c **** 
 767:../freertos/tasks.c **** static void prvInitialiseNewTask( 	TaskFunction_t pxTaskCode,
 768:../freertos/tasks.c **** 									const char * const pcName,
 769:../freertos/tasks.c **** 									const uint32_t ulStackDepth,
 770:../freertos/tasks.c **** 									void * const pvParameters,
 771:../freertos/tasks.c **** 									UBaseType_t uxPriority,
 772:../freertos/tasks.c **** 									TaskHandle_t * const pxCreatedTask,
 773:../freertos/tasks.c **** 									TCB_t *pxNewTCB,
 774:../freertos/tasks.c **** 									const MemoryRegion_t * const xRegions ) /*lint !e971 Unqualified char types are allowed fo
 775:../freertos/tasks.c **** {
 259              		.loc 1 775 0
 260              		.cfi_startproc
 261 0000 80B5     		push	{r7, lr}
 262              		.cfi_def_cfa_offset 8
 263              		.cfi_offset 7, -8
 264              		.cfi_offset 14, -4
 265 0002 86B0     		sub	sp, sp, #24
 266              		.cfi_def_cfa_offset 32
 267 0004 00AF     		add	r7, sp, #0
 268              		.cfi_def_cfa_register 7
 269 0006 F860     		str	r0, [r7, #12]
 270 0008 B960     		str	r1, [r7, #8]
 271 000a 7A60     		str	r2, [r7, #4]
 272 000c 3B60     		str	r3, [r7]
 776:../freertos/tasks.c **** StackType_t *pxTopOfStack;
 777:../freertos/tasks.c **** UBaseType_t x;
 778:../freertos/tasks.c **** 
 779:../freertos/tasks.c **** 	#if( portUSING_MPU_WRAPPERS == 1 )
 780:../freertos/tasks.c **** 		/* Should the task be created in privileged mode? */
 781:../freertos/tasks.c **** 		BaseType_t xRunPrivileged;
 782:../freertos/tasks.c **** 		if( ( uxPriority & portPRIVILEGE_BIT ) != 0U )
 783:../freertos/tasks.c **** 		{
 784:../freertos/tasks.c **** 			xRunPrivileged = pdTRUE;
 785:../freertos/tasks.c **** 		}
 786:../freertos/tasks.c **** 		else
 787:../freertos/tasks.c **** 		{
 788:../freertos/tasks.c **** 			xRunPrivileged = pdFALSE;
 789:../freertos/tasks.c **** 		}
 790:../freertos/tasks.c **** 		uxPriority &= ~portPRIVILEGE_BIT;
 791:../freertos/tasks.c **** 	#endif /* portUSING_MPU_WRAPPERS == 1 */
 792:../freertos/tasks.c **** 
 793:../freertos/tasks.c **** 	/* Avoid dependency on memset() if it is not required. */
 794:../freertos/tasks.c **** 	#if( ( configCHECK_FOR_STACK_OVERFLOW > 1 ) || ( configUSE_TRACE_FACILITY == 1 ) || ( INCLUDE_uxTa
 795:../freertos/tasks.c **** 	{
 796:../freertos/tasks.c **** 		/* Fill the stack with a known value to assist debugging. */
 797:../freertos/tasks.c **** 		( void ) memset( pxNewTCB->pxStack, ( int ) tskSTACK_FILL_BYTE, ( size_t ) ulStackDepth * sizeof(
 273              		.loc 1 797 0
 274 000e BB6A     		ldr	r3, [r7, #40]
 275 0010 1A6B     		ldr	r2, [r3, #48]
 276 0012 7B68     		ldr	r3, [r7, #4]
 277 0014 9B00     		lsl	r3, r3, #2
 278 0016 101C     		mov	r0, r2
 279 0018 A521     		mov	r1, #165
 280 001a 1A1C     		mov	r2, r3
 281 001c FFF7FEFF 		bl	memset
 798:../freertos/tasks.c **** 	}
 799:../freertos/tasks.c **** 	#endif /* ( ( configCHECK_FOR_STACK_OVERFLOW > 1 ) || ( ( configUSE_TRACE_FACILITY == 1 ) || ( INC
 800:../freertos/tasks.c **** 
 801:../freertos/tasks.c **** 	/* Calculate the top of stack address.  This depends on whether the stack
 802:../freertos/tasks.c **** 	grows from high memory to low (as per the 80x86) or vice versa.
 803:../freertos/tasks.c **** 	portSTACK_GROWTH is used to make the result positive or negative as required
 804:../freertos/tasks.c **** 	by the port. */
 805:../freertos/tasks.c **** 	#if( portSTACK_GROWTH < 0 )
 806:../freertos/tasks.c **** 	{
 807:../freertos/tasks.c **** 		pxTopOfStack = pxNewTCB->pxStack + ( ulStackDepth - ( uint32_t ) 1 );
 282              		.loc 1 807 0
 283 0020 BB6A     		ldr	r3, [r7, #40]
 284 0022 1A6B     		ldr	r2, [r3, #48]
 285 0024 7B68     		ldr	r3, [r7, #4]
 286 0026 3D49     		ldr	r1, .L20
 287 0028 5B18     		add	r3, r3, r1
 288 002a 9B00     		lsl	r3, r3, #2
 289 002c D318     		add	r3, r2, r3
 290 002e 3B61     		str	r3, [r7, #16]
 808:../freertos/tasks.c **** 		pxTopOfStack = ( StackType_t * ) ( ( ( portPOINTER_SIZE_TYPE ) pxTopOfStack ) & ( ~( ( portPOINTE
 291              		.loc 1 808 0
 292 0030 3B69     		ldr	r3, [r7, #16]
 293 0032 0722     		mov	r2, #7
 294 0034 9343     		bic	r3, r2
 295 0036 3B61     		str	r3, [r7, #16]
 809:../freertos/tasks.c **** 
 810:../freertos/tasks.c **** 		/* Check the alignment of the calculated top of stack is correct. */
 811:../freertos/tasks.c **** 		configASSERT( ( ( ( portPOINTER_SIZE_TYPE ) pxTopOfStack & ( portPOINTER_SIZE_TYPE ) portBYTE_ALI
 296              		.loc 1 811 0
 297 0038 3A69     		ldr	r2, [r7, #16]
 298 003a 0723     		mov	r3, #7
 299 003c 1340     		and	r3, r2
 300 003e 01D0     		beq	.L10
 301              		.loc 1 811 0 is_stmt 0 discriminator 1
 302              	@ 811 "../freertos/tasks.c" 1
 303 0040 72B6     		 cpsid i 
 304              	@ 0 "" 2
 305              		.code	16
 306              	.L11:
 307 0042 FEE7     		b	.L11
 308              	.L10:
 812:../freertos/tasks.c **** 		#if( configRECORD_STACK_HIGH_ADDRESS == 1 )
 813:../freertos/tasks.c **** 		{
 814:../freertos/tasks.c **** 			/* Also record the stack's high address, which may assist
 815:../freertos/tasks.c **** 			debugging. */
 816:../freertos/tasks.c **** 			pxNewTCB->pxEndOfStack = pxTopOfStack;
 817:../freertos/tasks.c **** 		}
 818:../freertos/tasks.c **** 		#endif /* configRECORD_STACK_HIGH_ADDRESS */
 819:../freertos/tasks.c **** 	}
 820:../freertos/tasks.c **** 	#else /* portSTACK_GROWTH */
 821:../freertos/tasks.c **** 	{
 822:../freertos/tasks.c **** 		pxTopOfStack = pxNewTCB->pxStack;
 823:../freertos/tasks.c **** 
 824:../freertos/tasks.c **** 		/* Check the alignment of the stack buffer is correct. */
 825:../freertos/tasks.c **** 		configASSERT( ( ( ( portPOINTER_SIZE_TYPE ) pxNewTCB->pxStack & ( portPOINTER_SIZE_TYPE ) portBYT
 826:../freertos/tasks.c **** 
 827:../freertos/tasks.c **** 		/* The other extreme of the stack space is required if stack checking is
 828:../freertos/tasks.c **** 		performed. */
 829:../freertos/tasks.c **** 		pxNewTCB->pxEndOfStack = pxNewTCB->pxStack + ( ulStackDepth - ( uint32_t ) 1 );
 830:../freertos/tasks.c **** 	}
 831:../freertos/tasks.c **** 	#endif /* portSTACK_GROWTH */
 832:../freertos/tasks.c **** 
 833:../freertos/tasks.c **** 	/* Store the task name in the TCB. */
 834:../freertos/tasks.c **** 	for( x = ( UBaseType_t ) 0; x < ( UBaseType_t ) configMAX_TASK_NAME_LEN; x++ )
 309              		.loc 1 834 0 is_stmt 1
 310 0044 0023     		mov	r3, #0
 311 0046 7B61     		str	r3, [r7, #20]
 312 0048 13E0     		b	.L12
 313              	.L15:
 835:../freertos/tasks.c **** 	{
 836:../freertos/tasks.c **** 		pxNewTCB->pcTaskName[ x ] = pcName[ x ];
 314              		.loc 1 836 0
 315 004a BA68     		ldr	r2, [r7, #8]
 316 004c 7B69     		ldr	r3, [r7, #20]
 317 004e D318     		add	r3, r2, r3
 318 0050 1A78     		ldrb	r2, [r3]
 319 0052 B86A     		ldr	r0, [r7, #40]
 320 0054 3023     		mov	r3, #48
 321 0056 7969     		ldr	r1, [r7, #20]
 322 0058 4118     		add	r1, r0, r1
 323 005a CB18     		add	r3, r1, r3
 324 005c 1A71     		strb	r2, [r3, #4]
 837:../freertos/tasks.c **** 
 838:../freertos/tasks.c **** 		/* Don't copy all configMAX_TASK_NAME_LEN if the string is shorter than
 839:../freertos/tasks.c **** 		configMAX_TASK_NAME_LEN characters just in case the memory after the
 840:../freertos/tasks.c **** 		string is not accessible (extremely unlikely). */
 841:../freertos/tasks.c **** 		if( pcName[ x ] == 0x00 )
 325              		.loc 1 841 0
 326 005e BA68     		ldr	r2, [r7, #8]
 327 0060 7B69     		ldr	r3, [r7, #20]
 328 0062 D318     		add	r3, r2, r3
 329 0064 1B78     		ldrb	r3, [r3]
 330 0066 002B     		cmp	r3, #0
 331 0068 00D1     		bne	.L13
 842:../freertos/tasks.c **** 		{
 843:../freertos/tasks.c **** 			break;
 332              		.loc 1 843 0
 333 006a 05E0     		b	.L14
 334              	.L13:
 834:../freertos/tasks.c **** 	for( x = ( UBaseType_t ) 0; x < ( UBaseType_t ) configMAX_TASK_NAME_LEN; x++ )
 335              		.loc 1 834 0
 336 006c 7B69     		ldr	r3, [r7, #20]
 337 006e 0133     		add	r3, r3, #1
 338 0070 7B61     		str	r3, [r7, #20]
 339              	.L12:
 834:../freertos/tasks.c **** 	for( x = ( UBaseType_t ) 0; x < ( UBaseType_t ) configMAX_TASK_NAME_LEN; x++ )
 340              		.loc 1 834 0 is_stmt 0 discriminator 1
 341 0072 7B69     		ldr	r3, [r7, #20]
 342 0074 132B     		cmp	r3, #19
 343 0076 E8D9     		bls	.L15
 344              	.L14:
 844:../freertos/tasks.c **** 		}
 845:../freertos/tasks.c **** 		else
 846:../freertos/tasks.c **** 		{
 847:../freertos/tasks.c **** 			mtCOVERAGE_TEST_MARKER();
 848:../freertos/tasks.c **** 		}
 849:../freertos/tasks.c **** 	}
 850:../freertos/tasks.c **** 
 851:../freertos/tasks.c **** 	/* Ensure the name string is terminated in the case that the string length
 852:../freertos/tasks.c **** 	was greater or equal to configMAX_TASK_NAME_LEN. */
 853:../freertos/tasks.c **** 	pxNewTCB->pcTaskName[ configMAX_TASK_NAME_LEN - 1 ] = '\0';
 345              		.loc 1 853 0 is_stmt 1
 346 0078 BA6A     		ldr	r2, [r7, #40]
 347 007a 4723     		mov	r3, #71
 348 007c 0021     		mov	r1, #0
 349 007e D154     		strb	r1, [r2, r3]
 854:../freertos/tasks.c **** 
 855:../freertos/tasks.c **** 	/* This is used as an array index so must ensure it's not too large.  First
 856:../freertos/tasks.c **** 	remove the privilege bit if one is present. */
 857:../freertos/tasks.c **** 	if( uxPriority >= ( UBaseType_t ) configMAX_PRIORITIES )
 350              		.loc 1 857 0
 351 0080 3B6A     		ldr	r3, [r7, #32]
 352 0082 042B     		cmp	r3, #4
 353 0084 01D9     		bls	.L16
 858:../freertos/tasks.c **** 	{
 859:../freertos/tasks.c **** 		uxPriority = ( UBaseType_t ) configMAX_PRIORITIES - ( UBaseType_t ) 1U;
 354              		.loc 1 859 0
 355 0086 0423     		mov	r3, #4
 356 0088 3B62     		str	r3, [r7, #32]
 357              	.L16:
 860:../freertos/tasks.c **** 	}
 861:../freertos/tasks.c **** 	else
 862:../freertos/tasks.c **** 	{
 863:../freertos/tasks.c **** 		mtCOVERAGE_TEST_MARKER();
 864:../freertos/tasks.c **** 	}
 865:../freertos/tasks.c **** 
 866:../freertos/tasks.c **** 	pxNewTCB->uxPriority = uxPriority;
 358              		.loc 1 866 0
 359 008a BB6A     		ldr	r3, [r7, #40]
 360 008c 3A6A     		ldr	r2, [r7, #32]
 361 008e DA62     		str	r2, [r3, #44]
 867:../freertos/tasks.c **** 	#if ( configUSE_MUTEXES == 1 )
 868:../freertos/tasks.c **** 	{
 869:../freertos/tasks.c **** 		pxNewTCB->uxBasePriority = uxPriority;
 362              		.loc 1 869 0
 363 0090 BB6A     		ldr	r3, [r7, #40]
 364 0092 3A6A     		ldr	r2, [r7, #32]
 365 0094 1A65     		str	r2, [r3, #80]
 870:../freertos/tasks.c **** 		pxNewTCB->uxMutexesHeld = 0;
 366              		.loc 1 870 0
 367 0096 BB6A     		ldr	r3, [r7, #40]
 368 0098 0022     		mov	r2, #0
 369 009a 5A65     		str	r2, [r3, #84]
 871:../freertos/tasks.c **** 	}
 872:../freertos/tasks.c **** 	#endif /* configUSE_MUTEXES */
 873:../freertos/tasks.c **** 
 874:../freertos/tasks.c **** 	vListInitialiseItem( &( pxNewTCB->xStateListItem ) );
 370              		.loc 1 874 0
 371 009c BB6A     		ldr	r3, [r7, #40]
 372 009e 0433     		add	r3, r3, #4
 373 00a0 181C     		mov	r0, r3
 374 00a2 FFF7FEFF 		bl	vListInitialiseItem
 875:../freertos/tasks.c **** 	vListInitialiseItem( &( pxNewTCB->xEventListItem ) );
 375              		.loc 1 875 0
 376 00a6 BB6A     		ldr	r3, [r7, #40]
 377 00a8 1833     		add	r3, r3, #24
 378 00aa 181C     		mov	r0, r3
 379 00ac FFF7FEFF 		bl	vListInitialiseItem
 876:../freertos/tasks.c **** 
 877:../freertos/tasks.c **** 	/* Set the pxNewTCB as a link back from the ListItem_t.  This is so we can get
 878:../freertos/tasks.c **** 	back to	the containing TCB from a generic item in a list. */
 879:../freertos/tasks.c **** 	listSET_LIST_ITEM_OWNER( &( pxNewTCB->xStateListItem ), pxNewTCB );
 380              		.loc 1 879 0
 381 00b0 BB6A     		ldr	r3, [r7, #40]
 382 00b2 BA6A     		ldr	r2, [r7, #40]
 383 00b4 1A61     		str	r2, [r3, #16]
 880:../freertos/tasks.c **** 
 881:../freertos/tasks.c **** 	/* Event lists are always in priority order. */
 882:../freertos/tasks.c **** 	listSET_LIST_ITEM_VALUE( &( pxNewTCB->xEventListItem ), ( TickType_t ) configMAX_PRIORITIES - ( Ti
 384              		.loc 1 882 0
 385 00b6 3B6A     		ldr	r3, [r7, #32]
 386 00b8 0522     		mov	r2, #5
 387 00ba D21A     		sub	r2, r2, r3
 388 00bc BB6A     		ldr	r3, [r7, #40]
 389 00be 9A61     		str	r2, [r3, #24]
 883:../freertos/tasks.c **** 	listSET_LIST_ITEM_OWNER( &( pxNewTCB->xEventListItem ), pxNewTCB );
 390              		.loc 1 883 0
 391 00c0 BB6A     		ldr	r3, [r7, #40]
 392 00c2 BA6A     		ldr	r2, [r7, #40]
 393 00c4 5A62     		str	r2, [r3, #36]
 884:../freertos/tasks.c **** 
 885:../freertos/tasks.c **** 	#if ( portCRITICAL_NESTING_IN_TCB == 1 )
 886:../freertos/tasks.c **** 	{
 887:../freertos/tasks.c **** 		pxNewTCB->uxCriticalNesting = ( UBaseType_t ) 0U;
 888:../freertos/tasks.c **** 	}
 889:../freertos/tasks.c **** 	#endif /* portCRITICAL_NESTING_IN_TCB */
 890:../freertos/tasks.c **** 
 891:../freertos/tasks.c **** 	#if ( configUSE_APPLICATION_TASK_TAG == 1 )
 892:../freertos/tasks.c **** 	{
 893:../freertos/tasks.c **** 		pxNewTCB->pxTaskTag = NULL;
 894:../freertos/tasks.c **** 	}
 895:../freertos/tasks.c **** 	#endif /* configUSE_APPLICATION_TASK_TAG */
 896:../freertos/tasks.c **** 
 897:../freertos/tasks.c **** 	#if ( configGENERATE_RUN_TIME_STATS == 1 )
 898:../freertos/tasks.c **** 	{
 899:../freertos/tasks.c **** 		pxNewTCB->ulRunTimeCounter = 0UL;
 900:../freertos/tasks.c **** 	}
 901:../freertos/tasks.c **** 	#endif /* configGENERATE_RUN_TIME_STATS */
 902:../freertos/tasks.c **** 
 903:../freertos/tasks.c **** 	#if ( portUSING_MPU_WRAPPERS == 1 )
 904:../freertos/tasks.c **** 	{
 905:../freertos/tasks.c **** 		vPortStoreTaskMPUSettings( &( pxNewTCB->xMPUSettings ), xRegions, pxNewTCB->pxStack, ulStackDepth
 906:../freertos/tasks.c **** 	}
 907:../freertos/tasks.c **** 	#else
 908:../freertos/tasks.c **** 	{
 909:../freertos/tasks.c **** 		/* Avoid compiler warning about unreferenced parameter. */
 910:../freertos/tasks.c **** 		( void ) xRegions;
 911:../freertos/tasks.c **** 	}
 912:../freertos/tasks.c **** 	#endif
 913:../freertos/tasks.c **** 
 914:../freertos/tasks.c **** 	#if( configNUM_THREAD_LOCAL_STORAGE_POINTERS != 0 )
 915:../freertos/tasks.c **** 	{
 916:../freertos/tasks.c **** 		for( x = 0; x < ( UBaseType_t ) configNUM_THREAD_LOCAL_STORAGE_POINTERS; x++ )
 394              		.loc 1 916 0
 395 00c6 0023     		mov	r3, #0
 396 00c8 7B61     		str	r3, [r7, #20]
 397 00ca 08E0     		b	.L17
 398              	.L18:
 917:../freertos/tasks.c **** 		{
 918:../freertos/tasks.c **** 			pxNewTCB->pvThreadLocalStoragePointers[ x ] = NULL;
 399              		.loc 1 918 0 discriminator 2
 400 00cc BB6A     		ldr	r3, [r7, #40]
 401 00ce 7A69     		ldr	r2, [r7, #20]
 402 00d0 1632     		add	r2, r2, #22
 403 00d2 9200     		lsl	r2, r2, #2
 404 00d4 0021     		mov	r1, #0
 405 00d6 D150     		str	r1, [r2, r3]
 916:../freertos/tasks.c **** 		for( x = 0; x < ( UBaseType_t ) configNUM_THREAD_LOCAL_STORAGE_POINTERS; x++ )
 406              		.loc 1 916 0 discriminator 2
 407 00d8 7B69     		ldr	r3, [r7, #20]
 408 00da 0133     		add	r3, r3, #1
 409 00dc 7B61     		str	r3, [r7, #20]
 410              	.L17:
 916:../freertos/tasks.c **** 		for( x = 0; x < ( UBaseType_t ) configNUM_THREAD_LOCAL_STORAGE_POINTERS; x++ )
 411              		.loc 1 916 0 is_stmt 0 discriminator 1
 412 00de 7B69     		ldr	r3, [r7, #20]
 413 00e0 042B     		cmp	r3, #4
 414 00e2 F3D9     		bls	.L18
 919:../freertos/tasks.c **** 		}
 920:../freertos/tasks.c **** 	}
 921:../freertos/tasks.c **** 	#endif
 922:../freertos/tasks.c **** 
 923:../freertos/tasks.c **** 	#if ( configUSE_TASK_NOTIFICATIONS == 1 )
 924:../freertos/tasks.c **** 	{
 925:../freertos/tasks.c **** 		pxNewTCB->ulNotifiedValue = 0;
 415              		.loc 1 925 0 is_stmt 1
 416 00e4 BB6A     		ldr	r3, [r7, #40]
 417 00e6 0022     		mov	r2, #0
 418 00e8 DA66     		str	r2, [r3, #108]
 926:../freertos/tasks.c **** 		pxNewTCB->ucNotifyState = taskNOT_WAITING_NOTIFICATION;
 419              		.loc 1 926 0
 420 00ea BA6A     		ldr	r2, [r7, #40]
 421 00ec 7023     		mov	r3, #112
 422 00ee 0021     		mov	r1, #0
 423 00f0 D154     		strb	r1, [r2, r3]
 927:../freertos/tasks.c **** 	}
 928:../freertos/tasks.c **** 	#endif
 929:../freertos/tasks.c **** 
 930:../freertos/tasks.c **** 	#if ( configUSE_NEWLIB_REENTRANT == 1 )
 931:../freertos/tasks.c **** 	{
 932:../freertos/tasks.c **** 		/* Initialise this task's Newlib reent structure. */
 933:../freertos/tasks.c **** 		_REENT_INIT_PTR( ( &( pxNewTCB->xNewLib_reent ) ) );
 934:../freertos/tasks.c **** 	}
 935:../freertos/tasks.c **** 	#endif
 936:../freertos/tasks.c **** 
 937:../freertos/tasks.c **** 	#if( INCLUDE_xTaskAbortDelay == 1 )
 938:../freertos/tasks.c **** 	{
 939:../freertos/tasks.c **** 		pxNewTCB->ucDelayAborted = pdFALSE;
 940:../freertos/tasks.c **** 	}
 941:../freertos/tasks.c **** 	#endif
 942:../freertos/tasks.c **** 
 943:../freertos/tasks.c **** 	/* Initialize the TCB stack to look as if the task was already running,
 944:../freertos/tasks.c **** 	but had been interrupted by the scheduler.  The return address is set
 945:../freertos/tasks.c **** 	to the start of the task function. Once the stack has been initialised
 946:../freertos/tasks.c **** 	the	top of stack variable is updated. */
 947:../freertos/tasks.c **** 	#if( portUSING_MPU_WRAPPERS == 1 )
 948:../freertos/tasks.c **** 	{
 949:../freertos/tasks.c **** 		pxNewTCB->pxTopOfStack = pxPortInitialiseStack( pxTopOfStack, pxTaskCode, pvParameters, xRunPrivi
 950:../freertos/tasks.c **** 	}
 951:../freertos/tasks.c **** 	#else /* portUSING_MPU_WRAPPERS */
 952:../freertos/tasks.c **** 	{
 953:../freertos/tasks.c **** 		pxNewTCB->pxTopOfStack = pxPortInitialiseStack( pxTopOfStack, pxTaskCode, pvParameters );
 424              		.loc 1 953 0
 425 00f2 3969     		ldr	r1, [r7, #16]
 426 00f4 FA68     		ldr	r2, [r7, #12]
 427 00f6 3B68     		ldr	r3, [r7]
 428 00f8 081C     		mov	r0, r1
 429 00fa 111C     		mov	r1, r2
 430 00fc 1A1C     		mov	r2, r3
 431 00fe FFF7FEFF 		bl	pxPortInitialiseStack
 432 0102 021C     		mov	r2, r0
 433 0104 BB6A     		ldr	r3, [r7, #40]
 434 0106 1A60     		str	r2, [r3]
 954:../freertos/tasks.c **** 	}
 955:../freertos/tasks.c **** 	#endif /* portUSING_MPU_WRAPPERS */
 956:../freertos/tasks.c **** 
 957:../freertos/tasks.c **** 	if( ( void * ) pxCreatedTask != NULL )
 435              		.loc 1 957 0
 436 0108 7B6A     		ldr	r3, [r7, #36]
 437 010a 002B     		cmp	r3, #0
 438 010c 02D0     		beq	.L9
 958:../freertos/tasks.c **** 	{
 959:../freertos/tasks.c **** 		/* Pass the handle out in an anonymous way.  The handle can be used to
 960:../freertos/tasks.c **** 		change the created task's priority, delete the created task, etc.*/
 961:../freertos/tasks.c **** 		*pxCreatedTask = ( TaskHandle_t ) pxNewTCB;
 439              		.loc 1 961 0
 440 010e 7B6A     		ldr	r3, [r7, #36]
 441 0110 BA6A     		ldr	r2, [r7, #40]
 442 0112 1A60     		str	r2, [r3]
 443              	.L9:
 962:../freertos/tasks.c **** 	}
 963:../freertos/tasks.c **** 	else
 964:../freertos/tasks.c **** 	{
 965:../freertos/tasks.c **** 		mtCOVERAGE_TEST_MARKER();
 966:../freertos/tasks.c **** 	}
 967:../freertos/tasks.c **** }
 444              		.loc 1 967 0
 445 0114 BD46     		mov	sp, r7
 446 0116 06B0     		add	sp, sp, #24
 447              		@ sp needed
 448 0118 80BD     		pop	{r7, pc}
 449              	.L21:
 450 011a C046     		.align	2
 451              	.L20:
 452 011c FFFFFF3F 		.word	1073741823
 453              		.cfi_endproc
 454              	.LFE1:
 456              		.section	.text.prvAddNewTaskToReadyList,"ax",%progbits
 457              		.align	2
 458              		.code	16
 459              		.thumb_func
 461              	prvAddNewTaskToReadyList:
 462              	.LFB2:
 968:../freertos/tasks.c **** /*-----------------------------------------------------------*/
 969:../freertos/tasks.c **** 
 970:../freertos/tasks.c **** static void prvAddNewTaskToReadyList( TCB_t *pxNewTCB )
 971:../freertos/tasks.c **** {
 463              		.loc 1 971 0
 464              		.cfi_startproc
 465 0000 80B5     		push	{r7, lr}
 466              		.cfi_def_cfa_offset 8
 467              		.cfi_offset 7, -8
 468              		.cfi_offset 14, -4
 469 0002 82B0     		sub	sp, sp, #8
 470              		.cfi_def_cfa_offset 16
 471 0004 00AF     		add	r7, sp, #0
 472              		.cfi_def_cfa_register 7
 473 0006 7860     		str	r0, [r7, #4]
 972:../freertos/tasks.c **** 	/* Ensure interrupts don't access the task lists while the lists are being
 973:../freertos/tasks.c **** 	updated. */
 974:../freertos/tasks.c **** 	taskENTER_CRITICAL();
 474              		.loc 1 974 0
 475 0008 FFF7FEFF 		bl	vPortEnterCritical
 975:../freertos/tasks.c **** 	{
 976:../freertos/tasks.c **** 		uxCurrentNumberOfTasks++;
 476              		.loc 1 976 0
 477 000c 294B     		ldr	r3, .L27
 478 000e 1B68     		ldr	r3, [r3]
 479 0010 5A1C     		add	r2, r3, #1
 480 0012 284B     		ldr	r3, .L27
 481 0014 1A60     		str	r2, [r3]
 977:../freertos/tasks.c **** 		if( pxCurrentTCB == NULL )
 482              		.loc 1 977 0
 483 0016 284B     		ldr	r3, .L27+4
 484 0018 1B68     		ldr	r3, [r3]
 485 001a 002B     		cmp	r3, #0
 486 001c 09D1     		bne	.L23
 978:../freertos/tasks.c **** 		{
 979:../freertos/tasks.c **** 			/* There are no other tasks, or all the other tasks are in
 980:../freertos/tasks.c **** 			the suspended state - make this the current task. */
 981:../freertos/tasks.c **** 			pxCurrentTCB = pxNewTCB;
 487              		.loc 1 981 0
 488 001e 264B     		ldr	r3, .L27+4
 489 0020 7A68     		ldr	r2, [r7, #4]
 490 0022 1A60     		str	r2, [r3]
 982:../freertos/tasks.c **** 
 983:../freertos/tasks.c **** 			if( uxCurrentNumberOfTasks == ( UBaseType_t ) 1 )
 491              		.loc 1 983 0
 492 0024 234B     		ldr	r3, .L27
 493 0026 1B68     		ldr	r3, [r3]
 494 0028 012B     		cmp	r3, #1
 495 002a 10D1     		bne	.L24
 984:../freertos/tasks.c **** 			{
 985:../freertos/tasks.c **** 				/* This is the first task to be created so do the preliminary
 986:../freertos/tasks.c **** 				initialisation required.  We will not recover if this call
 987:../freertos/tasks.c **** 				fails, but we will report the failure. */
 988:../freertos/tasks.c **** 				prvInitialiseTaskLists();
 496              		.loc 1 988 0
 497 002c FFF7FEFF 		bl	prvInitialiseTaskLists
 498 0030 0DE0     		b	.L24
 499              	.L23:
 989:../freertos/tasks.c **** 			}
 990:../freertos/tasks.c **** 			else
 991:../freertos/tasks.c **** 			{
 992:../freertos/tasks.c **** 				mtCOVERAGE_TEST_MARKER();
 993:../freertos/tasks.c **** 			}
 994:../freertos/tasks.c **** 		}
 995:../freertos/tasks.c **** 		else
 996:../freertos/tasks.c **** 		{
 997:../freertos/tasks.c **** 			/* If the scheduler is not already running, make this task the
 998:../freertos/tasks.c **** 			current task if it is the highest priority task to be created
 999:../freertos/tasks.c **** 			so far. */
1000:../freertos/tasks.c **** 			if( xSchedulerRunning == pdFALSE )
 500              		.loc 1 1000 0
 501 0032 224B     		ldr	r3, .L27+8
 502 0034 1B68     		ldr	r3, [r3]
 503 0036 002B     		cmp	r3, #0
 504 0038 09D1     		bne	.L24
1001:../freertos/tasks.c **** 			{
1002:../freertos/tasks.c **** 				if( pxCurrentTCB->uxPriority <= pxNewTCB->uxPriority )
 505              		.loc 1 1002 0
 506 003a 1F4B     		ldr	r3, .L27+4
 507 003c 1B68     		ldr	r3, [r3]
 508 003e DA6A     		ldr	r2, [r3, #44]
 509 0040 7B68     		ldr	r3, [r7, #4]
 510 0042 DB6A     		ldr	r3, [r3, #44]
 511 0044 9A42     		cmp	r2, r3
 512 0046 02D8     		bhi	.L24
1003:../freertos/tasks.c **** 				{
1004:../freertos/tasks.c **** 					pxCurrentTCB = pxNewTCB;
 513              		.loc 1 1004 0
 514 0048 1B4B     		ldr	r3, .L27+4
 515 004a 7A68     		ldr	r2, [r7, #4]
 516 004c 1A60     		str	r2, [r3]
 517              	.L24:
1005:../freertos/tasks.c **** 				}
1006:../freertos/tasks.c **** 				else
1007:../freertos/tasks.c **** 				{
1008:../freertos/tasks.c **** 					mtCOVERAGE_TEST_MARKER();
1009:../freertos/tasks.c **** 				}
1010:../freertos/tasks.c **** 			}
1011:../freertos/tasks.c **** 			else
1012:../freertos/tasks.c **** 			{
1013:../freertos/tasks.c **** 				mtCOVERAGE_TEST_MARKER();
1014:../freertos/tasks.c **** 			}
1015:../freertos/tasks.c **** 		}
1016:../freertos/tasks.c **** 
1017:../freertos/tasks.c **** 		uxTaskNumber++;
 518              		.loc 1 1017 0
 519 004e 1C4B     		ldr	r3, .L27+12
 520 0050 1B68     		ldr	r3, [r3]
 521 0052 5A1C     		add	r2, r3, #1
 522 0054 1A4B     		ldr	r3, .L27+12
 523 0056 1A60     		str	r2, [r3]
1018:../freertos/tasks.c **** 
1019:../freertos/tasks.c **** 		#if ( configUSE_TRACE_FACILITY == 1 )
1020:../freertos/tasks.c **** 		{
1021:../freertos/tasks.c **** 			/* Add a counter into the TCB for tracing only. */
1022:../freertos/tasks.c **** 			pxNewTCB->uxTCBNumber = uxTaskNumber;
 524              		.loc 1 1022 0
 525 0058 194B     		ldr	r3, .L27+12
 526 005a 1A68     		ldr	r2, [r3]
 527 005c 7B68     		ldr	r3, [r7, #4]
 528 005e 9A64     		str	r2, [r3, #72]
1023:../freertos/tasks.c **** 		}
1024:../freertos/tasks.c **** 		#endif /* configUSE_TRACE_FACILITY */
1025:../freertos/tasks.c **** 		traceTASK_CREATE( pxNewTCB );
1026:../freertos/tasks.c **** 
1027:../freertos/tasks.c **** 		prvAddTaskToReadyList( pxNewTCB );
 529              		.loc 1 1027 0
 530 0060 7B68     		ldr	r3, [r7, #4]
 531 0062 DA6A     		ldr	r2, [r3, #44]
 532 0064 174B     		ldr	r3, .L27+16
 533 0066 1B68     		ldr	r3, [r3]
 534 0068 9A42     		cmp	r2, r3
 535 006a 03D9     		bls	.L25
 536              		.loc 1 1027 0 is_stmt 0 discriminator 1
 537 006c 7B68     		ldr	r3, [r7, #4]
 538 006e DA6A     		ldr	r2, [r3, #44]
 539 0070 144B     		ldr	r3, .L27+16
 540 0072 1A60     		str	r2, [r3]
 541              	.L25:
 542              		.loc 1 1027 0 discriminator 2
 543 0074 7B68     		ldr	r3, [r7, #4]
 544 0076 DA6A     		ldr	r2, [r3, #44]
 545 0078 131C     		mov	r3, r2
 546 007a 9B00     		lsl	r3, r3, #2
 547 007c 9B18     		add	r3, r3, r2
 548 007e 9B00     		lsl	r3, r3, #2
 549 0080 114A     		ldr	r2, .L27+20
 550 0082 9A18     		add	r2, r3, r2
 551 0084 7B68     		ldr	r3, [r7, #4]
 552 0086 0433     		add	r3, r3, #4
 553 0088 101C     		mov	r0, r2
 554 008a 191C     		mov	r1, r3
 555 008c FFF7FEFF 		bl	vListInsertEnd
1028:../freertos/tasks.c **** 
1029:../freertos/tasks.c **** 		portSETUP_TCB( pxNewTCB );
1030:../freertos/tasks.c **** 	}
1031:../freertos/tasks.c **** 	taskEXIT_CRITICAL();
 556              		.loc 1 1031 0 is_stmt 1 discriminator 2
 557 0090 FFF7FEFF 		bl	vPortExitCritical
1032:../freertos/tasks.c **** 
1033:../freertos/tasks.c **** 	if( xSchedulerRunning != pdFALSE )
 558              		.loc 1 1033 0 discriminator 2
 559 0094 094B     		ldr	r3, .L27+8
 560 0096 1B68     		ldr	r3, [r3]
 561 0098 002B     		cmp	r3, #0
 562 009a 08D0     		beq	.L22
1034:../freertos/tasks.c **** 	{
1035:../freertos/tasks.c **** 		/* If the created task is of a higher priority than the current task
1036:../freertos/tasks.c **** 		then it should run now. */
1037:../freertos/tasks.c **** 		if( pxCurrentTCB->uxPriority < pxNewTCB->uxPriority )
 563              		.loc 1 1037 0
 564 009c 064B     		ldr	r3, .L27+4
 565 009e 1B68     		ldr	r3, [r3]
 566 00a0 DA6A     		ldr	r2, [r3, #44]
 567 00a2 7B68     		ldr	r3, [r7, #4]
 568 00a4 DB6A     		ldr	r3, [r3, #44]
 569 00a6 9A42     		cmp	r2, r3
 570 00a8 01D2     		bcs	.L22
1038:../freertos/tasks.c **** 		{
1039:../freertos/tasks.c **** 			taskYIELD_IF_USING_PREEMPTION();
 571              		.loc 1 1039 0
 572 00aa FFF7FEFF 		bl	vPortYield
 573              	.L22:
1040:../freertos/tasks.c **** 		}
1041:../freertos/tasks.c **** 		else
1042:../freertos/tasks.c **** 		{
1043:../freertos/tasks.c **** 			mtCOVERAGE_TEST_MARKER();
1044:../freertos/tasks.c **** 		}
1045:../freertos/tasks.c **** 	}
1046:../freertos/tasks.c **** 	else
1047:../freertos/tasks.c **** 	{
1048:../freertos/tasks.c **** 		mtCOVERAGE_TEST_MARKER();
1049:../freertos/tasks.c **** 	}
1050:../freertos/tasks.c **** }
 574              		.loc 1 1050 0
 575 00ae BD46     		mov	sp, r7
 576 00b0 02B0     		add	sp, sp, #8
 577              		@ sp needed
 578 00b2 80BD     		pop	{r7, pc}
 579              	.L28:
 580              		.align	2
 581              	.L27:
 582 00b4 00000000 		.word	uxCurrentNumberOfTasks
 583 00b8 00000000 		.word	pxCurrentTCB
 584 00bc 00000000 		.word	xSchedulerRunning
 585 00c0 00000000 		.word	uxTaskNumber
 586 00c4 00000000 		.word	uxTopReadyPriority
 587 00c8 00000000 		.word	pxReadyTasksLists
 588              		.cfi_endproc
 589              	.LFE2:
 591              		.section	.text.vTaskDelete,"ax",%progbits
 592              		.align	2
 593              		.global	vTaskDelete
 594              		.code	16
 595              		.thumb_func
 597              	vTaskDelete:
 598              	.LFB3:
1051:../freertos/tasks.c **** /*-----------------------------------------------------------*/
1052:../freertos/tasks.c **** 
1053:../freertos/tasks.c **** #if ( INCLUDE_vTaskDelete == 1 )
1054:../freertos/tasks.c **** 
1055:../freertos/tasks.c **** 	void vTaskDelete( TaskHandle_t xTaskToDelete )
1056:../freertos/tasks.c **** 	{
 599              		.loc 1 1056 0
 600              		.cfi_startproc
 601 0000 80B5     		push	{r7, lr}
 602              		.cfi_def_cfa_offset 8
 603              		.cfi_offset 7, -8
 604              		.cfi_offset 14, -4
 605 0002 84B0     		sub	sp, sp, #16
 606              		.cfi_def_cfa_offset 24
 607 0004 00AF     		add	r7, sp, #0
 608              		.cfi_def_cfa_register 7
 609 0006 7860     		str	r0, [r7, #4]
1057:../freertos/tasks.c **** 	TCB_t *pxTCB;
1058:../freertos/tasks.c **** 
1059:../freertos/tasks.c **** 		taskENTER_CRITICAL();
 610              		.loc 1 1059 0
 611 0008 FFF7FEFF 		bl	vPortEnterCritical
1060:../freertos/tasks.c **** 		{
1061:../freertos/tasks.c **** 			/* If null is passed in here then it is the calling task that is
1062:../freertos/tasks.c **** 			being deleted. */
1063:../freertos/tasks.c **** 			pxTCB = prvGetTCBFromHandle( xTaskToDelete );
 612              		.loc 1 1063 0
 613 000c 7B68     		ldr	r3, [r7, #4]
 614 000e 002B     		cmp	r3, #0
 615 0010 02D1     		bne	.L30
 616              		.loc 1 1063 0 is_stmt 0 discriminator 1
 617 0012 254B     		ldr	r3, .L38
 618 0014 1B68     		ldr	r3, [r3]
 619 0016 00E0     		b	.L31
 620              	.L30:
 621              		.loc 1 1063 0 discriminator 2
 622 0018 7B68     		ldr	r3, [r7, #4]
 623              	.L31:
 624              		.loc 1 1063 0 discriminator 3
 625 001a FB60     		str	r3, [r7, #12]
1064:../freertos/tasks.c **** 
1065:../freertos/tasks.c **** 			/* Remove task from the ready list. */
1066:../freertos/tasks.c **** 			if( uxListRemove( &( pxTCB->xStateListItem ) ) == ( UBaseType_t ) 0 )
 626              		.loc 1 1066 0 is_stmt 1 discriminator 3
 627 001c FB68     		ldr	r3, [r7, #12]
 628 001e 0433     		add	r3, r3, #4
 629 0020 181C     		mov	r0, r3
 630 0022 FFF7FEFF 		bl	uxListRemove
1067:../freertos/tasks.c **** 			{
1068:../freertos/tasks.c **** 				taskRESET_READY_PRIORITY( pxTCB->uxPriority );
1069:../freertos/tasks.c **** 			}
1070:../freertos/tasks.c **** 			else
1071:../freertos/tasks.c **** 			{
1072:../freertos/tasks.c **** 				mtCOVERAGE_TEST_MARKER();
1073:../freertos/tasks.c **** 			}
1074:../freertos/tasks.c **** 
1075:../freertos/tasks.c **** 			/* Is the task waiting on an event also? */
1076:../freertos/tasks.c **** 			if( listLIST_ITEM_CONTAINER( &( pxTCB->xEventListItem ) ) != NULL )
 631              		.loc 1 1076 0 discriminator 3
 632 0026 FB68     		ldr	r3, [r7, #12]
 633 0028 9B6A     		ldr	r3, [r3, #40]
 634 002a 002B     		cmp	r3, #0
 635 002c 04D0     		beq	.L32
1077:../freertos/tasks.c **** 			{
1078:../freertos/tasks.c **** 				( void ) uxListRemove( &( pxTCB->xEventListItem ) );
 636              		.loc 1 1078 0
 637 002e FB68     		ldr	r3, [r7, #12]
 638 0030 1833     		add	r3, r3, #24
 639 0032 181C     		mov	r0, r3
 640 0034 FFF7FEFF 		bl	uxListRemove
 641              	.L32:
1079:../freertos/tasks.c **** 			}
1080:../freertos/tasks.c **** 			else
1081:../freertos/tasks.c **** 			{
1082:../freertos/tasks.c **** 				mtCOVERAGE_TEST_MARKER();
1083:../freertos/tasks.c **** 			}
1084:../freertos/tasks.c **** 
1085:../freertos/tasks.c **** 			/* Increment the uxTaskNumber also so kernel aware debuggers can
1086:../freertos/tasks.c **** 			detect that the task lists need re-generating.  This is done before
1087:../freertos/tasks.c **** 			portPRE_TASK_DELETE_HOOK() as in the Windows port that macro will
1088:../freertos/tasks.c **** 			not return. */
1089:../freertos/tasks.c **** 			uxTaskNumber++;
 642              		.loc 1 1089 0
 643 0038 1C4B     		ldr	r3, .L38+4
 644 003a 1B68     		ldr	r3, [r3]
 645 003c 5A1C     		add	r2, r3, #1
 646 003e 1B4B     		ldr	r3, .L38+4
 647 0040 1A60     		str	r2, [r3]
1090:../freertos/tasks.c **** 
1091:../freertos/tasks.c **** 			if( pxTCB == pxCurrentTCB )
 648              		.loc 1 1091 0
 649 0042 194B     		ldr	r3, .L38
 650 0044 1B68     		ldr	r3, [r3]
 651 0046 FA68     		ldr	r2, [r7, #12]
 652 0048 9A42     		cmp	r2, r3
 653 004a 0CD1     		bne	.L33
1092:../freertos/tasks.c **** 			{
1093:../freertos/tasks.c **** 				/* A task is deleting itself.  This cannot complete within the
1094:../freertos/tasks.c **** 				task itself, as a context switch to another task is required.
1095:../freertos/tasks.c **** 				Place the task in the termination list.  The idle task will
1096:../freertos/tasks.c **** 				check the termination list and free up any memory allocated by
1097:../freertos/tasks.c **** 				the scheduler for the TCB and stack of the deleted task. */
1098:../freertos/tasks.c **** 				vListInsertEnd( &xTasksWaitingTermination, &( pxTCB->xStateListItem ) );
 654              		.loc 1 1098 0
 655 004c FB68     		ldr	r3, [r7, #12]
 656 004e 0433     		add	r3, r3, #4
 657 0050 174A     		ldr	r2, .L38+8
 658 0052 101C     		mov	r0, r2
 659 0054 191C     		mov	r1, r3
 660 0056 FFF7FEFF 		bl	vListInsertEnd
1099:../freertos/tasks.c **** 
1100:../freertos/tasks.c **** 				/* Increment the ucTasksDeleted variable so the idle task knows
1101:../freertos/tasks.c **** 				there is a task that has been deleted and that it should therefore
1102:../freertos/tasks.c **** 				check the xTasksWaitingTermination list. */
1103:../freertos/tasks.c **** 				++uxDeletedTasksWaitingCleanUp;
 661              		.loc 1 1103 0
 662 005a 164B     		ldr	r3, .L38+12
 663 005c 1B68     		ldr	r3, [r3]
 664 005e 5A1C     		add	r2, r3, #1
 665 0060 144B     		ldr	r3, .L38+12
 666 0062 1A60     		str	r2, [r3]
 667 0064 0AE0     		b	.L34
 668              	.L33:
1104:../freertos/tasks.c **** 
1105:../freertos/tasks.c **** 				/* The pre-delete hook is primarily for the Windows simulator,
1106:../freertos/tasks.c **** 				in which Windows specific clean up operations are performed,
1107:../freertos/tasks.c **** 				after which it is not possible to yield away from this task -
1108:../freertos/tasks.c **** 				hence xYieldPending is used to latch that a context switch is
1109:../freertos/tasks.c **** 				required. */
1110:../freertos/tasks.c **** 				portPRE_TASK_DELETE_HOOK( pxTCB, &xYieldPending );
1111:../freertos/tasks.c **** 			}
1112:../freertos/tasks.c **** 			else
1113:../freertos/tasks.c **** 			{
1114:../freertos/tasks.c **** 				--uxCurrentNumberOfTasks;
 669              		.loc 1 1114 0
 670 0066 144B     		ldr	r3, .L38+16
 671 0068 1B68     		ldr	r3, [r3]
 672 006a 5A1E     		sub	r2, r3, #1
 673 006c 124B     		ldr	r3, .L38+16
 674 006e 1A60     		str	r2, [r3]
1115:../freertos/tasks.c **** 				prvDeleteTCB( pxTCB );
 675              		.loc 1 1115 0
 676 0070 FB68     		ldr	r3, [r7, #12]
 677 0072 181C     		mov	r0, r3
 678 0074 FFF7FEFF 		bl	prvDeleteTCB
1116:../freertos/tasks.c **** 
1117:../freertos/tasks.c **** 				/* Reset the next expected unblock time in case it referred to
1118:../freertos/tasks.c **** 				the task that has just been deleted. */
1119:../freertos/tasks.c **** 				prvResetNextTaskUnblockTime();
 679              		.loc 1 1119 0
 680 0078 FFF7FEFF 		bl	prvResetNextTaskUnblockTime
 681              	.L34:
1120:../freertos/tasks.c **** 			}
1121:../freertos/tasks.c **** 
1122:../freertos/tasks.c **** 			traceTASK_DELETE( pxTCB );
1123:../freertos/tasks.c **** 		}
1124:../freertos/tasks.c **** 		taskEXIT_CRITICAL();
 682              		.loc 1 1124 0
 683 007c FFF7FEFF 		bl	vPortExitCritical
1125:../freertos/tasks.c **** 
1126:../freertos/tasks.c **** 		/* Force a reschedule if it is the currently running task that has just
1127:../freertos/tasks.c **** 		been deleted. */
1128:../freertos/tasks.c **** 		if( xSchedulerRunning != pdFALSE )
 684              		.loc 1 1128 0
 685 0080 0E4B     		ldr	r3, .L38+20
 686 0082 1B68     		ldr	r3, [r3]
 687 0084 002B     		cmp	r3, #0
 688 0086 0CD0     		beq	.L29
1129:../freertos/tasks.c **** 		{
1130:../freertos/tasks.c **** 			if( pxTCB == pxCurrentTCB )
 689              		.loc 1 1130 0
 690 0088 074B     		ldr	r3, .L38
 691 008a 1B68     		ldr	r3, [r3]
 692 008c FA68     		ldr	r2, [r7, #12]
 693 008e 9A42     		cmp	r2, r3
 694 0090 07D1     		bne	.L29
1131:../freertos/tasks.c **** 			{
1132:../freertos/tasks.c **** 				configASSERT( uxSchedulerSuspended == 0 );
 695              		.loc 1 1132 0
 696 0092 0B4B     		ldr	r3, .L38+24
 697 0094 1B68     		ldr	r3, [r3]
 698 0096 002B     		cmp	r3, #0
 699 0098 01D0     		beq	.L36
 700              		.loc 1 1132 0 is_stmt 0 discriminator 1
 701              	@ 1132 "../freertos/tasks.c" 1
 702 009a 72B6     		 cpsid i 
 703              	@ 0 "" 2
 704              		.code	16
 705              	.L37:
 706 009c FEE7     		b	.L37
 707              	.L36:
1133:../freertos/tasks.c **** 				portYIELD_WITHIN_API();
 708              		.loc 1 1133 0 is_stmt 1
 709 009e FFF7FEFF 		bl	vPortYield
 710              	.L29:
1134:../freertos/tasks.c **** 			}
1135:../freertos/tasks.c **** 			else
1136:../freertos/tasks.c **** 			{
1137:../freertos/tasks.c **** 				mtCOVERAGE_TEST_MARKER();
1138:../freertos/tasks.c **** 			}
1139:../freertos/tasks.c **** 		}
1140:../freertos/tasks.c **** 	}
 711              		.loc 1 1140 0
 712 00a2 BD46     		mov	sp, r7
 713 00a4 04B0     		add	sp, sp, #16
 714              		@ sp needed
 715 00a6 80BD     		pop	{r7, pc}
 716              	.L39:
 717              		.align	2
 718              	.L38:
 719 00a8 00000000 		.word	pxCurrentTCB
 720 00ac 00000000 		.word	uxTaskNumber
 721 00b0 00000000 		.word	xTasksWaitingTermination
 722 00b4 00000000 		.word	uxDeletedTasksWaitingCleanUp
 723 00b8 00000000 		.word	uxCurrentNumberOfTasks
 724 00bc 00000000 		.word	xSchedulerRunning
 725 00c0 00000000 		.word	uxSchedulerSuspended
 726              		.cfi_endproc
 727              	.LFE3:
 729              		.section	.text.vTaskDelayUntil,"ax",%progbits
 730              		.align	2
 731              		.global	vTaskDelayUntil
 732              		.code	16
 733              		.thumb_func
 735              	vTaskDelayUntil:
 736              	.LFB4:
1141:../freertos/tasks.c **** 
1142:../freertos/tasks.c **** #endif /* INCLUDE_vTaskDelete */
1143:../freertos/tasks.c **** /*-----------------------------------------------------------*/
1144:../freertos/tasks.c **** 
1145:../freertos/tasks.c **** #if ( INCLUDE_vTaskDelayUntil == 1 )
1146:../freertos/tasks.c **** 
1147:../freertos/tasks.c **** 	void vTaskDelayUntil( TickType_t * const pxPreviousWakeTime, const TickType_t xTimeIncrement )
1148:../freertos/tasks.c **** 	{
 737              		.loc 1 1148 0
 738              		.cfi_startproc
 739 0000 80B5     		push	{r7, lr}
 740              		.cfi_def_cfa_offset 8
 741              		.cfi_offset 7, -8
 742              		.cfi_offset 14, -4
 743 0002 86B0     		sub	sp, sp, #24
 744              		.cfi_def_cfa_offset 32
 745 0004 00AF     		add	r7, sp, #0
 746              		.cfi_def_cfa_register 7
 747 0006 7860     		str	r0, [r7, #4]
 748 0008 3960     		str	r1, [r7]
1149:../freertos/tasks.c **** 	TickType_t xTimeToWake;
1150:../freertos/tasks.c **** 	BaseType_t xAlreadyYielded, xShouldDelay = pdFALSE;
 749              		.loc 1 1150 0
 750 000a 0023     		mov	r3, #0
 751 000c 7B61     		str	r3, [r7, #20]
1151:../freertos/tasks.c **** 
1152:../freertos/tasks.c **** 		configASSERT( pxPreviousWakeTime );
 752              		.loc 1 1152 0
 753 000e 7B68     		ldr	r3, [r7, #4]
 754 0010 002B     		cmp	r3, #0
 755 0012 01D1     		bne	.L41
 756              		.loc 1 1152 0 is_stmt 0 discriminator 1
 757              	@ 1152 "../freertos/tasks.c" 1
 758 0014 72B6     		 cpsid i 
 759              	@ 0 "" 2
 760              		.code	16
 761              	.L42:
 762 0016 FEE7     		b	.L42
 763              	.L41:
1153:../freertos/tasks.c **** 		configASSERT( ( xTimeIncrement > 0U ) );
 764              		.loc 1 1153 0 is_stmt 1
 765 0018 3B68     		ldr	r3, [r7]
 766 001a 002B     		cmp	r3, #0
 767 001c 01D1     		bne	.L43
 768              		.loc 1 1153 0 is_stmt 0 discriminator 1
 769              	@ 1153 "../freertos/tasks.c" 1
 770 001e 72B6     		 cpsid i 
 771              	@ 0 "" 2
 772              		.code	16
 773              	.L44:
 774 0020 FEE7     		b	.L44
 775              	.L43:
1154:../freertos/tasks.c **** 		configASSERT( uxSchedulerSuspended == 0 );
 776              		.loc 1 1154 0 is_stmt 1
 777 0022 224B     		ldr	r3, .L52
 778 0024 1B68     		ldr	r3, [r3]
 779 0026 002B     		cmp	r3, #0
 780 0028 01D0     		beq	.L45
 781              		.loc 1 1154 0 is_stmt 0 discriminator 1
 782              	@ 1154 "../freertos/tasks.c" 1
 783 002a 72B6     		 cpsid i 
 784              	@ 0 "" 2
 785              		.code	16
 786              	.L46:
 787 002c FEE7     		b	.L46
 788              	.L45:
1155:../freertos/tasks.c **** 
1156:../freertos/tasks.c **** 		vTaskSuspendAll();
 789              		.loc 1 1156 0 is_stmt 1
 790 002e FFF7FEFF 		bl	vTaskSuspendAll
 791              	.LBB3:
1157:../freertos/tasks.c **** 		{
1158:../freertos/tasks.c **** 			/* Minor optimisation.  The tick count cannot change in this
1159:../freertos/tasks.c **** 			block. */
1160:../freertos/tasks.c **** 			const TickType_t xConstTickCount = xTickCount;
 792              		.loc 1 1160 0
 793 0032 1F4B     		ldr	r3, .L52+4
 794 0034 1B68     		ldr	r3, [r3]
 795 0036 3B61     		str	r3, [r7, #16]
1161:../freertos/tasks.c **** 
1162:../freertos/tasks.c **** 			/* Generate the tick time at which the task wants to wake. */
1163:../freertos/tasks.c **** 			xTimeToWake = *pxPreviousWakeTime + xTimeIncrement;
 796              		.loc 1 1163 0
 797 0038 7B68     		ldr	r3, [r7, #4]
 798 003a 1A68     		ldr	r2, [r3]
 799 003c 3B68     		ldr	r3, [r7]
 800 003e D318     		add	r3, r2, r3
 801 0040 FB60     		str	r3, [r7, #12]
1164:../freertos/tasks.c **** 
1165:../freertos/tasks.c **** 			if( xConstTickCount < *pxPreviousWakeTime )
 802              		.loc 1 1165 0
 803 0042 7B68     		ldr	r3, [r7, #4]
 804 0044 1A68     		ldr	r2, [r3]
 805 0046 3B69     		ldr	r3, [r7, #16]
 806 0048 9A42     		cmp	r2, r3
 807 004a 0BD9     		bls	.L47
1166:../freertos/tasks.c **** 			{
1167:../freertos/tasks.c **** 				/* The tick count has overflowed since this function was
1168:../freertos/tasks.c **** 				lasted called.  In this case the only time we should ever
1169:../freertos/tasks.c **** 				actually delay is if the wake time has also	overflowed,
1170:../freertos/tasks.c **** 				and the wake time is greater than the tick time.  When this
1171:../freertos/tasks.c **** 				is the case it is as if neither time had overflowed. */
1172:../freertos/tasks.c **** 				if( ( xTimeToWake < *pxPreviousWakeTime ) && ( xTimeToWake > xConstTickCount ) )
 808              		.loc 1 1172 0
 809 004c 7B68     		ldr	r3, [r7, #4]
 810 004e 1A68     		ldr	r2, [r3]
 811 0050 FB68     		ldr	r3, [r7, #12]
 812 0052 9A42     		cmp	r2, r3
 813 0054 11D9     		bls	.L48
 814              		.loc 1 1172 0 is_stmt 0 discriminator 1
 815 0056 FA68     		ldr	r2, [r7, #12]
 816 0058 3B69     		ldr	r3, [r7, #16]
 817 005a 9A42     		cmp	r2, r3
 818 005c 0DD9     		bls	.L48
1173:../freertos/tasks.c **** 				{
1174:../freertos/tasks.c **** 					xShouldDelay = pdTRUE;
 819              		.loc 1 1174 0 is_stmt 1
 820 005e 0123     		mov	r3, #1
 821 0060 7B61     		str	r3, [r7, #20]
 822 0062 0AE0     		b	.L48
 823              	.L47:
1175:../freertos/tasks.c **** 				}
1176:../freertos/tasks.c **** 				else
1177:../freertos/tasks.c **** 				{
1178:../freertos/tasks.c **** 					mtCOVERAGE_TEST_MARKER();
1179:../freertos/tasks.c **** 				}
1180:../freertos/tasks.c **** 			}
1181:../freertos/tasks.c **** 			else
1182:../freertos/tasks.c **** 			{
1183:../freertos/tasks.c **** 				/* The tick time has not overflowed.  In this case we will
1184:../freertos/tasks.c **** 				delay if either the wake time has overflowed, and/or the
1185:../freertos/tasks.c **** 				tick time is less than the wake time. */
1186:../freertos/tasks.c **** 				if( ( xTimeToWake < *pxPreviousWakeTime ) || ( xTimeToWake > xConstTickCount ) )
 824              		.loc 1 1186 0
 825 0064 7B68     		ldr	r3, [r7, #4]
 826 0066 1A68     		ldr	r2, [r3]
 827 0068 FB68     		ldr	r3, [r7, #12]
 828 006a 9A42     		cmp	r2, r3
 829 006c 03D8     		bhi	.L49
 830              		.loc 1 1186 0 is_stmt 0 discriminator 1
 831 006e FA68     		ldr	r2, [r7, #12]
 832 0070 3B69     		ldr	r3, [r7, #16]
 833 0072 9A42     		cmp	r2, r3
 834 0074 01D9     		bls	.L48
 835              	.L49:
1187:../freertos/tasks.c **** 				{
1188:../freertos/tasks.c **** 					xShouldDelay = pdTRUE;
 836              		.loc 1 1188 0 is_stmt 1
 837 0076 0123     		mov	r3, #1
 838 0078 7B61     		str	r3, [r7, #20]
 839              	.L48:
1189:../freertos/tasks.c **** 				}
1190:../freertos/tasks.c **** 				else
1191:../freertos/tasks.c **** 				{
1192:../freertos/tasks.c **** 					mtCOVERAGE_TEST_MARKER();
1193:../freertos/tasks.c **** 				}
1194:../freertos/tasks.c **** 			}
1195:../freertos/tasks.c **** 
1196:../freertos/tasks.c **** 			/* Update the wake time ready for the next call. */
1197:../freertos/tasks.c **** 			*pxPreviousWakeTime = xTimeToWake;
 840              		.loc 1 1197 0
 841 007a 7B68     		ldr	r3, [r7, #4]
 842 007c FA68     		ldr	r2, [r7, #12]
 843 007e 1A60     		str	r2, [r3]
1198:../freertos/tasks.c **** 
1199:../freertos/tasks.c **** 			if( xShouldDelay != pdFALSE )
 844              		.loc 1 1199 0
 845 0080 7B69     		ldr	r3, [r7, #20]
 846 0082 002B     		cmp	r3, #0
 847 0084 06D0     		beq	.L50
1200:../freertos/tasks.c **** 			{
1201:../freertos/tasks.c **** 				traceTASK_DELAY_UNTIL( xTimeToWake );
1202:../freertos/tasks.c **** 
1203:../freertos/tasks.c **** 				/* prvAddCurrentTaskToDelayedList() needs the block time, not
1204:../freertos/tasks.c **** 				the time to wake, so subtract the current tick count. */
1205:../freertos/tasks.c **** 				prvAddCurrentTaskToDelayedList( xTimeToWake - xConstTickCount, pdFALSE );
 848              		.loc 1 1205 0
 849 0086 FA68     		ldr	r2, [r7, #12]
 850 0088 3B69     		ldr	r3, [r7, #16]
 851 008a D31A     		sub	r3, r2, r3
 852 008c 181C     		mov	r0, r3
 853 008e 0021     		mov	r1, #0
 854 0090 FFF7FEFF 		bl	prvAddCurrentTaskToDelayedList
 855              	.L50:
 856              	.LBE3:
1206:../freertos/tasks.c **** 			}
1207:../freertos/tasks.c **** 			else
1208:../freertos/tasks.c **** 			{
1209:../freertos/tasks.c **** 				mtCOVERAGE_TEST_MARKER();
1210:../freertos/tasks.c **** 			}
1211:../freertos/tasks.c **** 		}
1212:../freertos/tasks.c **** 		xAlreadyYielded = xTaskResumeAll();
 857              		.loc 1 1212 0
 858 0094 FFF7FEFF 		bl	xTaskResumeAll
 859 0098 031C     		mov	r3, r0
 860 009a BB60     		str	r3, [r7, #8]
1213:../freertos/tasks.c **** 
1214:../freertos/tasks.c **** 		/* Force a reschedule if xTaskResumeAll has not already done so, we may
1215:../freertos/tasks.c **** 		have put ourselves to sleep. */
1216:../freertos/tasks.c **** 		if( xAlreadyYielded == pdFALSE )
 861              		.loc 1 1216 0
 862 009c BB68     		ldr	r3, [r7, #8]
 863 009e 002B     		cmp	r3, #0
 864 00a0 01D1     		bne	.L40
1217:../freertos/tasks.c **** 		{
1218:../freertos/tasks.c **** 			portYIELD_WITHIN_API();
 865              		.loc 1 1218 0
 866 00a2 FFF7FEFF 		bl	vPortYield
 867              	.L40:
1219:../freertos/tasks.c **** 		}
1220:../freertos/tasks.c **** 		else
1221:../freertos/tasks.c **** 		{
1222:../freertos/tasks.c **** 			mtCOVERAGE_TEST_MARKER();
1223:../freertos/tasks.c **** 		}
1224:../freertos/tasks.c **** 	}
 868              		.loc 1 1224 0
 869 00a6 BD46     		mov	sp, r7
 870 00a8 06B0     		add	sp, sp, #24
 871              		@ sp needed
 872 00aa 80BD     		pop	{r7, pc}
 873              	.L53:
 874              		.align	2
 875              	.L52:
 876 00ac 00000000 		.word	uxSchedulerSuspended
 877 00b0 00000000 		.word	xTickCount
 878              		.cfi_endproc
 879              	.LFE4:
 881              		.section	.text.vTaskDelay,"ax",%progbits
 882              		.align	2
 883              		.global	vTaskDelay
 884              		.code	16
 885              		.thumb_func
 887              	vTaskDelay:
 888              	.LFB5:
1225:../freertos/tasks.c **** 
1226:../freertos/tasks.c **** #endif /* INCLUDE_vTaskDelayUntil */
1227:../freertos/tasks.c **** /*-----------------------------------------------------------*/
1228:../freertos/tasks.c **** 
1229:../freertos/tasks.c **** #if ( INCLUDE_vTaskDelay == 1 )
1230:../freertos/tasks.c **** 
1231:../freertos/tasks.c **** 	void vTaskDelay( const TickType_t xTicksToDelay )
1232:../freertos/tasks.c **** 	{
 889              		.loc 1 1232 0
 890              		.cfi_startproc
 891 0000 80B5     		push	{r7, lr}
 892              		.cfi_def_cfa_offset 8
 893              		.cfi_offset 7, -8
 894              		.cfi_offset 14, -4
 895 0002 84B0     		sub	sp, sp, #16
 896              		.cfi_def_cfa_offset 24
 897 0004 00AF     		add	r7, sp, #0
 898              		.cfi_def_cfa_register 7
 899 0006 7860     		str	r0, [r7, #4]
1233:../freertos/tasks.c **** 	BaseType_t xAlreadyYielded = pdFALSE;
 900              		.loc 1 1233 0
 901 0008 0023     		mov	r3, #0
 902 000a FB60     		str	r3, [r7, #12]
1234:../freertos/tasks.c **** 
1235:../freertos/tasks.c **** 		/* A delay time of zero just forces a reschedule. */
1236:../freertos/tasks.c **** 		if( xTicksToDelay > ( TickType_t ) 0U )
 903              		.loc 1 1236 0
 904 000c 7B68     		ldr	r3, [r7, #4]
 905 000e 002B     		cmp	r3, #0
 906 0010 10D0     		beq	.L55
1237:../freertos/tasks.c **** 		{
1238:../freertos/tasks.c **** 			configASSERT( uxSchedulerSuspended == 0 );
 907              		.loc 1 1238 0
 908 0012 0C4B     		ldr	r3, .L59
 909 0014 1B68     		ldr	r3, [r3]
 910 0016 002B     		cmp	r3, #0
 911 0018 01D0     		beq	.L56
 912              		.loc 1 1238 0 is_stmt 0 discriminator 1
 913              	@ 1238 "../freertos/tasks.c" 1
 914 001a 72B6     		 cpsid i 
 915              	@ 0 "" 2
 916              		.code	16
 917              	.L57:
 918 001c FEE7     		b	.L57
 919              	.L56:
1239:../freertos/tasks.c **** 			vTaskSuspendAll();
 920              		.loc 1 1239 0 is_stmt 1
 921 001e FFF7FEFF 		bl	vTaskSuspendAll
1240:../freertos/tasks.c **** 			{
1241:../freertos/tasks.c **** 				traceTASK_DELAY();
1242:../freertos/tasks.c **** 
1243:../freertos/tasks.c **** 				/* A task that is removed from the event list while the
1244:../freertos/tasks.c **** 				scheduler is suspended will not get placed in the ready
1245:../freertos/tasks.c **** 				list or removed from the blocked list until the scheduler
1246:../freertos/tasks.c **** 				is resumed.
1247:../freertos/tasks.c **** 
1248:../freertos/tasks.c **** 				This task cannot be in an event list as it is the currently
1249:../freertos/tasks.c **** 				executing task. */
1250:../freertos/tasks.c **** 				prvAddCurrentTaskToDelayedList( xTicksToDelay, pdFALSE );
 922              		.loc 1 1250 0
 923 0022 7B68     		ldr	r3, [r7, #4]
 924 0024 181C     		mov	r0, r3
 925 0026 0021     		mov	r1, #0
 926 0028 FFF7FEFF 		bl	prvAddCurrentTaskToDelayedList
1251:../freertos/tasks.c **** 			}
1252:../freertos/tasks.c **** 			xAlreadyYielded = xTaskResumeAll();
 927              		.loc 1 1252 0
 928 002c FFF7FEFF 		bl	xTaskResumeAll
 929 0030 031C     		mov	r3, r0
 930 0032 FB60     		str	r3, [r7, #12]
 931              	.L55:
1253:../freertos/tasks.c **** 		}
1254:../freertos/tasks.c **** 		else
1255:../freertos/tasks.c **** 		{
1256:../freertos/tasks.c **** 			mtCOVERAGE_TEST_MARKER();
1257:../freertos/tasks.c **** 		}
1258:../freertos/tasks.c **** 
1259:../freertos/tasks.c **** 		/* Force a reschedule if xTaskResumeAll has not already done so, we may
1260:../freertos/tasks.c **** 		have put ourselves to sleep. */
1261:../freertos/tasks.c **** 		if( xAlreadyYielded == pdFALSE )
 932              		.loc 1 1261 0
 933 0034 FB68     		ldr	r3, [r7, #12]
 934 0036 002B     		cmp	r3, #0
 935 0038 01D1     		bne	.L54
1262:../freertos/tasks.c **** 		{
1263:../freertos/tasks.c **** 			portYIELD_WITHIN_API();
 936              		.loc 1 1263 0
 937 003a FFF7FEFF 		bl	vPortYield
 938              	.L54:
1264:../freertos/tasks.c **** 		}
1265:../freertos/tasks.c **** 		else
1266:../freertos/tasks.c **** 		{
1267:../freertos/tasks.c **** 			mtCOVERAGE_TEST_MARKER();
1268:../freertos/tasks.c **** 		}
1269:../freertos/tasks.c **** 	}
 939              		.loc 1 1269 0
 940 003e BD46     		mov	sp, r7
 941 0040 04B0     		add	sp, sp, #16
 942              		@ sp needed
 943 0042 80BD     		pop	{r7, pc}
 944              	.L60:
 945              		.align	2
 946              	.L59:
 947 0044 00000000 		.word	uxSchedulerSuspended
 948              		.cfi_endproc
 949              	.LFE5:
 951              		.section	.text.eTaskGetState,"ax",%progbits
 952              		.align	2
 953              		.global	eTaskGetState
 954              		.code	16
 955              		.thumb_func
 957              	eTaskGetState:
 958              	.LFB6:
1270:../freertos/tasks.c **** 
1271:../freertos/tasks.c **** #endif /* INCLUDE_vTaskDelay */
1272:../freertos/tasks.c **** /*-----------------------------------------------------------*/
1273:../freertos/tasks.c **** 
1274:../freertos/tasks.c **** #if( ( INCLUDE_eTaskGetState == 1 ) || ( configUSE_TRACE_FACILITY == 1 ) )
1275:../freertos/tasks.c **** 
1276:../freertos/tasks.c **** 	eTaskState eTaskGetState( TaskHandle_t xTask )
1277:../freertos/tasks.c **** 	{
 959              		.loc 1 1277 0
 960              		.cfi_startproc
 961 0000 80B5     		push	{r7, lr}
 962              		.cfi_def_cfa_offset 8
 963              		.cfi_offset 7, -8
 964              		.cfi_offset 14, -4
 965 0002 86B0     		sub	sp, sp, #24
 966              		.cfi_def_cfa_offset 32
 967 0004 00AF     		add	r7, sp, #0
 968              		.cfi_def_cfa_register 7
 969 0006 7860     		str	r0, [r7, #4]
1278:../freertos/tasks.c **** 	eTaskState eReturn;
1279:../freertos/tasks.c **** 	List_t *pxStateList;
1280:../freertos/tasks.c **** 	const TCB_t * const pxTCB = ( TCB_t * ) xTask;
 970              		.loc 1 1280 0
 971 0008 7B68     		ldr	r3, [r7, #4]
 972 000a 3B61     		str	r3, [r7, #16]
1281:../freertos/tasks.c **** 
1282:../freertos/tasks.c **** 		configASSERT( pxTCB );
 973              		.loc 1 1282 0
 974 000c 3B69     		ldr	r3, [r7, #16]
 975 000e 002B     		cmp	r3, #0
 976 0010 01D1     		bne	.L62
 977              		.loc 1 1282 0 is_stmt 0 discriminator 1
 978              	@ 1282 "../freertos/tasks.c" 1
 979 0012 72B6     		 cpsid i 
 980              	@ 0 "" 2
 981              		.code	16
 982              	.L63:
 983 0014 FEE7     		b	.L63
 984              	.L62:
1283:../freertos/tasks.c **** 
1284:../freertos/tasks.c **** 		if( pxTCB == pxCurrentTCB )
 985              		.loc 1 1284 0 is_stmt 1
 986 0016 244B     		ldr	r3, .L74
 987 0018 1B68     		ldr	r3, [r3]
 988 001a 3A69     		ldr	r2, [r7, #16]
 989 001c 9A42     		cmp	r2, r3
 990 001e 04D1     		bne	.L64
1285:../freertos/tasks.c **** 		{
1286:../freertos/tasks.c **** 			/* The task calling this function is querying its own state. */
1287:../freertos/tasks.c **** 			eReturn = eRunning;
 991              		.loc 1 1287 0
 992 0020 3B1C     		mov	r3, r7
 993 0022 1733     		add	r3, r3, #23
 994 0024 0022     		mov	r2, #0
 995 0026 1A70     		strb	r2, [r3]
 996 0028 37E0     		b	.L65
 997              	.L64:
1288:../freertos/tasks.c **** 		}
1289:../freertos/tasks.c **** 		else
1290:../freertos/tasks.c **** 		{
1291:../freertos/tasks.c **** 			taskENTER_CRITICAL();
 998              		.loc 1 1291 0
 999 002a FFF7FEFF 		bl	vPortEnterCritical
1292:../freertos/tasks.c **** 			{
1293:../freertos/tasks.c **** 				pxStateList = ( List_t * ) listLIST_ITEM_CONTAINER( &( pxTCB->xStateListItem ) );
 1000              		.loc 1 1293 0
 1001 002e 3B69     		ldr	r3, [r7, #16]
 1002 0030 5B69     		ldr	r3, [r3, #20]
 1003 0032 FB60     		str	r3, [r7, #12]
1294:../freertos/tasks.c **** 			}
1295:../freertos/tasks.c **** 			taskEXIT_CRITICAL();
 1004              		.loc 1 1295 0
 1005 0034 FFF7FEFF 		bl	vPortExitCritical
1296:../freertos/tasks.c **** 
1297:../freertos/tasks.c **** 			if( ( pxStateList == pxDelayedTaskList ) || ( pxStateList == pxOverflowDelayedTaskList ) )
 1006              		.loc 1 1297 0
 1007 0038 1C4B     		ldr	r3, .L74+4
 1008 003a 1B68     		ldr	r3, [r3]
 1009 003c FA68     		ldr	r2, [r7, #12]
 1010 003e 9A42     		cmp	r2, r3
 1011 0040 04D0     		beq	.L66
 1012              		.loc 1 1297 0 is_stmt 0 discriminator 1
 1013 0042 1B4B     		ldr	r3, .L74+8
 1014 0044 1B68     		ldr	r3, [r3]
 1015 0046 FA68     		ldr	r2, [r7, #12]
 1016 0048 9A42     		cmp	r2, r3
 1017 004a 04D1     		bne	.L67
 1018              	.L66:
1298:../freertos/tasks.c **** 			{
1299:../freertos/tasks.c **** 				/* The task being queried is referenced from one of the Blocked
1300:../freertos/tasks.c **** 				lists. */
1301:../freertos/tasks.c **** 				eReturn = eBlocked;
 1019              		.loc 1 1301 0 is_stmt 1
 1020 004c 3B1C     		mov	r3, r7
 1021 004e 1733     		add	r3, r3, #23
 1022 0050 0222     		mov	r2, #2
 1023 0052 1A70     		strb	r2, [r3]
 1024 0054 21E0     		b	.L65
 1025              	.L67:
1302:../freertos/tasks.c **** 			}
1303:../freertos/tasks.c **** 
1304:../freertos/tasks.c **** 			#if ( INCLUDE_vTaskSuspend == 1 )
1305:../freertos/tasks.c **** 				else if( pxStateList == &xSuspendedTaskList )
 1026              		.loc 1 1305 0
 1027 0056 FA68     		ldr	r2, [r7, #12]
 1028 0058 164B     		ldr	r3, .L74+12
 1029 005a 9A42     		cmp	r2, r3
 1030 005c 0DD1     		bne	.L68
1306:../freertos/tasks.c **** 				{
1307:../freertos/tasks.c **** 					/* The task being queried is referenced from the suspended
1308:../freertos/tasks.c **** 					list.  Is it genuinely suspended or is it block
1309:../freertos/tasks.c **** 					indefinitely? */
1310:../freertos/tasks.c **** 					if( listLIST_ITEM_CONTAINER( &( pxTCB->xEventListItem ) ) == NULL )
 1031              		.loc 1 1310 0
 1032 005e 3B69     		ldr	r3, [r7, #16]
 1033 0060 9B6A     		ldr	r3, [r3, #40]
 1034 0062 002B     		cmp	r3, #0
 1035 0064 04D1     		bne	.L69
1311:../freertos/tasks.c **** 					{
1312:../freertos/tasks.c **** 						eReturn = eSuspended;
 1036              		.loc 1 1312 0
 1037 0066 3B1C     		mov	r3, r7
 1038 0068 1733     		add	r3, r3, #23
 1039 006a 0322     		mov	r2, #3
 1040 006c 1A70     		strb	r2, [r3]
 1041 006e 14E0     		b	.L65
 1042              	.L69:
1313:../freertos/tasks.c **** 					}
1314:../freertos/tasks.c **** 					else
1315:../freertos/tasks.c **** 					{
1316:../freertos/tasks.c **** 						eReturn = eBlocked;
 1043              		.loc 1 1316 0
 1044 0070 3B1C     		mov	r3, r7
 1045 0072 1733     		add	r3, r3, #23
 1046 0074 0222     		mov	r2, #2
 1047 0076 1A70     		strb	r2, [r3]
 1048 0078 0FE0     		b	.L65
 1049              	.L68:
1317:../freertos/tasks.c **** 					}
1318:../freertos/tasks.c **** 				}
1319:../freertos/tasks.c **** 			#endif
1320:../freertos/tasks.c **** 
1321:../freertos/tasks.c **** 			#if ( INCLUDE_vTaskDelete == 1 )
1322:../freertos/tasks.c **** 				else if( ( pxStateList == &xTasksWaitingTermination ) || ( pxStateList == NULL ) )
 1050              		.loc 1 1322 0
 1051 007a FA68     		ldr	r2, [r7, #12]
 1052 007c 0E4B     		ldr	r3, .L74+16
 1053 007e 9A42     		cmp	r2, r3
 1054 0080 02D0     		beq	.L71
 1055              		.loc 1 1322 0 is_stmt 0 discriminator 1
 1056 0082 FB68     		ldr	r3, [r7, #12]
 1057 0084 002B     		cmp	r3, #0
 1058 0086 04D1     		bne	.L72
 1059              	.L71:
1323:../freertos/tasks.c **** 				{
1324:../freertos/tasks.c **** 					/* The task being queried is referenced from the deleted
1325:../freertos/tasks.c **** 					tasks list, or it is not referenced from any lists at
1326:../freertos/tasks.c **** 					all. */
1327:../freertos/tasks.c **** 					eReturn = eDeleted;
 1060              		.loc 1 1327 0 is_stmt 1
 1061 0088 3B1C     		mov	r3, r7
 1062 008a 1733     		add	r3, r3, #23
 1063 008c 0422     		mov	r2, #4
 1064 008e 1A70     		strb	r2, [r3]
 1065 0090 03E0     		b	.L65
 1066              	.L72:
1328:../freertos/tasks.c **** 				}
1329:../freertos/tasks.c **** 			#endif
1330:../freertos/tasks.c **** 
1331:../freertos/tasks.c **** 			else /*lint !e525 Negative indentation is intended to make use of pre-processor clearer. */
1332:../freertos/tasks.c **** 			{
1333:../freertos/tasks.c **** 				/* If the task is not in any other state, it must be in the
1334:../freertos/tasks.c **** 				Ready (including pending ready) state. */
1335:../freertos/tasks.c **** 				eReturn = eReady;
 1067              		.loc 1 1335 0
 1068 0092 3B1C     		mov	r3, r7
 1069 0094 1733     		add	r3, r3, #23
 1070 0096 0122     		mov	r2, #1
 1071 0098 1A70     		strb	r2, [r3]
 1072              	.L65:
1336:../freertos/tasks.c **** 			}
1337:../freertos/tasks.c **** 		}
1338:../freertos/tasks.c **** 
1339:../freertos/tasks.c **** 		return eReturn;
 1073              		.loc 1 1339 0
 1074 009a 3B1C     		mov	r3, r7
 1075 009c 1733     		add	r3, r3, #23
 1076 009e 1B78     		ldrb	r3, [r3]
1340:../freertos/tasks.c **** 	} /*lint !e818 xTask cannot be a pointer to const because it is a typedef. */
 1077              		.loc 1 1340 0
 1078 00a0 181C     		mov	r0, r3
 1079 00a2 BD46     		mov	sp, r7
 1080 00a4 06B0     		add	sp, sp, #24
 1081              		@ sp needed
 1082 00a6 80BD     		pop	{r7, pc}
 1083              	.L75:
 1084              		.align	2
 1085              	.L74:
 1086 00a8 00000000 		.word	pxCurrentTCB
 1087 00ac 00000000 		.word	pxDelayedTaskList
 1088 00b0 00000000 		.word	pxOverflowDelayedTaskList
 1089 00b4 00000000 		.word	xSuspendedTaskList
 1090 00b8 00000000 		.word	xTasksWaitingTermination
 1091              		.cfi_endproc
 1092              	.LFE6:
 1094              		.section	.text.uxTaskPriorityGet,"ax",%progbits
 1095              		.align	2
 1096              		.global	uxTaskPriorityGet
 1097              		.code	16
 1098              		.thumb_func
 1100              	uxTaskPriorityGet:
 1101              	.LFB7:
1341:../freertos/tasks.c **** 
1342:../freertos/tasks.c **** #endif /* INCLUDE_eTaskGetState */
1343:../freertos/tasks.c **** /*-----------------------------------------------------------*/
1344:../freertos/tasks.c **** 
1345:../freertos/tasks.c **** #if ( INCLUDE_uxTaskPriorityGet == 1 )
1346:../freertos/tasks.c **** 
1347:../freertos/tasks.c **** 	UBaseType_t uxTaskPriorityGet( TaskHandle_t xTask )
1348:../freertos/tasks.c **** 	{
 1102              		.loc 1 1348 0
 1103              		.cfi_startproc
 1104 0000 80B5     		push	{r7, lr}
 1105              		.cfi_def_cfa_offset 8
 1106              		.cfi_offset 7, -8
 1107              		.cfi_offset 14, -4
 1108 0002 84B0     		sub	sp, sp, #16
 1109              		.cfi_def_cfa_offset 24
 1110 0004 00AF     		add	r7, sp, #0
 1111              		.cfi_def_cfa_register 7
 1112 0006 7860     		str	r0, [r7, #4]
1349:../freertos/tasks.c **** 	TCB_t *pxTCB;
1350:../freertos/tasks.c **** 	UBaseType_t uxReturn;
1351:../freertos/tasks.c **** 
1352:../freertos/tasks.c **** 		taskENTER_CRITICAL();
 1113              		.loc 1 1352 0
 1114 0008 FFF7FEFF 		bl	vPortEnterCritical
1353:../freertos/tasks.c **** 		{
1354:../freertos/tasks.c **** 			/* If null is passed in here then it is the priority of the that
1355:../freertos/tasks.c **** 			called uxTaskPriorityGet() that is being queried. */
1356:../freertos/tasks.c **** 			pxTCB = prvGetTCBFromHandle( xTask );
 1115              		.loc 1 1356 0
 1116 000c 7B68     		ldr	r3, [r7, #4]
 1117 000e 002B     		cmp	r3, #0
 1118 0010 02D1     		bne	.L77
 1119              		.loc 1 1356 0 is_stmt 0 discriminator 1
 1120 0012 074B     		ldr	r3, .L80
 1121 0014 1B68     		ldr	r3, [r3]
 1122 0016 00E0     		b	.L78
 1123              	.L77:
 1124              		.loc 1 1356 0 discriminator 2
 1125 0018 7B68     		ldr	r3, [r7, #4]
 1126              	.L78:
 1127              		.loc 1 1356 0 discriminator 3
 1128 001a FB60     		str	r3, [r7, #12]
1357:../freertos/tasks.c **** 			uxReturn = pxTCB->uxPriority;
 1129              		.loc 1 1357 0 is_stmt 1 discriminator 3
 1130 001c FB68     		ldr	r3, [r7, #12]
 1131 001e DB6A     		ldr	r3, [r3, #44]
 1132 0020 BB60     		str	r3, [r7, #8]
1358:../freertos/tasks.c **** 		}
1359:../freertos/tasks.c **** 		taskEXIT_CRITICAL();
 1133              		.loc 1 1359 0 discriminator 3
 1134 0022 FFF7FEFF 		bl	vPortExitCritical
1360:../freertos/tasks.c **** 
1361:../freertos/tasks.c **** 		return uxReturn;
 1135              		.loc 1 1361 0 discriminator 3
 1136 0026 BB68     		ldr	r3, [r7, #8]
1362:../freertos/tasks.c **** 	}
 1137              		.loc 1 1362 0 discriminator 3
 1138 0028 181C     		mov	r0, r3
 1139 002a BD46     		mov	sp, r7
 1140 002c 04B0     		add	sp, sp, #16
 1141              		@ sp needed
 1142 002e 80BD     		pop	{r7, pc}
 1143              	.L81:
 1144              		.align	2
 1145              	.L80:
 1146 0030 00000000 		.word	pxCurrentTCB
 1147              		.cfi_endproc
 1148              	.LFE7:
 1150              		.section	.text.uxTaskPriorityGetFromISR,"ax",%progbits
 1151              		.align	2
 1152              		.global	uxTaskPriorityGetFromISR
 1153              		.code	16
 1154              		.thumb_func
 1156              	uxTaskPriorityGetFromISR:
 1157              	.LFB8:
1363:../freertos/tasks.c **** 
1364:../freertos/tasks.c **** #endif /* INCLUDE_uxTaskPriorityGet */
1365:../freertos/tasks.c **** /*-----------------------------------------------------------*/
1366:../freertos/tasks.c **** 
1367:../freertos/tasks.c **** #if ( INCLUDE_uxTaskPriorityGet == 1 )
1368:../freertos/tasks.c **** 
1369:../freertos/tasks.c **** 	UBaseType_t uxTaskPriorityGetFromISR( TaskHandle_t xTask )
1370:../freertos/tasks.c **** 	{
 1158              		.loc 1 1370 0
 1159              		.cfi_startproc
 1160 0000 80B5     		push	{r7, lr}
 1161              		.cfi_def_cfa_offset 8
 1162              		.cfi_offset 7, -8
 1163              		.cfi_offset 14, -4
 1164 0002 86B0     		sub	sp, sp, #24
 1165              		.cfi_def_cfa_offset 32
 1166 0004 00AF     		add	r7, sp, #0
 1167              		.cfi_def_cfa_register 7
 1168 0006 7860     		str	r0, [r7, #4]
1371:../freertos/tasks.c **** 	TCB_t *pxTCB;
1372:../freertos/tasks.c **** 	UBaseType_t uxReturn, uxSavedInterruptState;
1373:../freertos/tasks.c **** 
1374:../freertos/tasks.c **** 		/* RTOS ports that support interrupt nesting have the concept of a
1375:../freertos/tasks.c **** 		maximum	system call (or maximum API call) interrupt priority.
1376:../freertos/tasks.c **** 		Interrupts that are	above the maximum system call priority are keep
1377:../freertos/tasks.c **** 		permanently enabled, even when the RTOS kernel is in a critical section,
1378:../freertos/tasks.c **** 		but cannot make any calls to FreeRTOS API functions.  If configASSERT()
1379:../freertos/tasks.c **** 		is defined in FreeRTOSConfig.h then
1380:../freertos/tasks.c **** 		portASSERT_IF_INTERRUPT_PRIORITY_INVALID() will result in an assertion
1381:../freertos/tasks.c **** 		failure if a FreeRTOS API function is called from an interrupt that has
1382:../freertos/tasks.c **** 		been assigned a priority above the configured maximum system call
1383:../freertos/tasks.c **** 		priority.  Only FreeRTOS functions that end in FromISR can be called
1384:../freertos/tasks.c **** 		from interrupts	that have been assigned a priority at or (logically)
1385:../freertos/tasks.c **** 		below the maximum system call interrupt priority.  FreeRTOS maintains a
1386:../freertos/tasks.c **** 		separate interrupt safe API to ensure interrupt entry is as fast and as
1387:../freertos/tasks.c **** 		simple as possible.  More information (albeit Cortex-M specific) is
1388:../freertos/tasks.c **** 		provided on the following link:
1389:../freertos/tasks.c **** 		http://www.freertos.org/RTOS-Cortex-M3-M4.html */
1390:../freertos/tasks.c **** 		portASSERT_IF_INTERRUPT_PRIORITY_INVALID();
1391:../freertos/tasks.c **** 
1392:../freertos/tasks.c **** 		uxSavedInterruptState = portSET_INTERRUPT_MASK_FROM_ISR();
 1169              		.loc 1 1392 0
 1170 0008 FFF7FEFF 		bl	ulSetInterruptMaskFromISR
 1171 000c 031C     		mov	r3, r0
 1172 000e 7B61     		str	r3, [r7, #20]
1393:../freertos/tasks.c **** 		{
1394:../freertos/tasks.c **** 			/* If null is passed in here then it is the priority of the calling
1395:../freertos/tasks.c **** 			task that is being queried. */
1396:../freertos/tasks.c **** 			pxTCB = prvGetTCBFromHandle( xTask );
 1173              		.loc 1 1396 0
 1174 0010 7B68     		ldr	r3, [r7, #4]
 1175 0012 002B     		cmp	r3, #0
 1176 0014 02D1     		bne	.L83
 1177              		.loc 1 1396 0 is_stmt 0 discriminator 1
 1178 0016 084B     		ldr	r3, .L86
 1179 0018 1B68     		ldr	r3, [r3]
 1180 001a 00E0     		b	.L84
 1181              	.L83:
 1182              		.loc 1 1396 0 discriminator 2
 1183 001c 7B68     		ldr	r3, [r7, #4]
 1184              	.L84:
 1185              		.loc 1 1396 0 discriminator 3
 1186 001e 3B61     		str	r3, [r7, #16]
1397:../freertos/tasks.c **** 			uxReturn = pxTCB->uxPriority;
 1187              		.loc 1 1397 0 is_stmt 1 discriminator 3
 1188 0020 3B69     		ldr	r3, [r7, #16]
 1189 0022 DB6A     		ldr	r3, [r3, #44]
 1190 0024 FB60     		str	r3, [r7, #12]
1398:../freertos/tasks.c **** 		}
1399:../freertos/tasks.c **** 		portCLEAR_INTERRUPT_MASK_FROM_ISR( uxSavedInterruptState );
 1191              		.loc 1 1399 0 discriminator 3
 1192 0026 7B69     		ldr	r3, [r7, #20]
 1193 0028 181C     		mov	r0, r3
 1194 002a FFF7FEFF 		bl	vClearInterruptMaskFromISR
1400:../freertos/tasks.c **** 
1401:../freertos/tasks.c **** 		return uxReturn;
 1195              		.loc 1 1401 0 discriminator 3
 1196 002e FB68     		ldr	r3, [r7, #12]
1402:../freertos/tasks.c **** 	}
 1197              		.loc 1 1402 0 discriminator 3
 1198 0030 181C     		mov	r0, r3
 1199 0032 BD46     		mov	sp, r7
 1200 0034 06B0     		add	sp, sp, #24
 1201              		@ sp needed
 1202 0036 80BD     		pop	{r7, pc}
 1203              	.L87:
 1204              		.align	2
 1205              	.L86:
 1206 0038 00000000 		.word	pxCurrentTCB
 1207              		.cfi_endproc
 1208              	.LFE8:
 1210              		.section	.text.vTaskPrioritySet,"ax",%progbits
 1211              		.align	2
 1212              		.global	vTaskPrioritySet
 1213              		.code	16
 1214              		.thumb_func
 1216              	vTaskPrioritySet:
 1217              	.LFB9:
1403:../freertos/tasks.c **** 
1404:../freertos/tasks.c **** #endif /* INCLUDE_uxTaskPriorityGet */
1405:../freertos/tasks.c **** /*-----------------------------------------------------------*/
1406:../freertos/tasks.c **** 
1407:../freertos/tasks.c **** #if ( INCLUDE_vTaskPrioritySet == 1 )
1408:../freertos/tasks.c **** 
1409:../freertos/tasks.c **** 	void vTaskPrioritySet( TaskHandle_t xTask, UBaseType_t uxNewPriority )
1410:../freertos/tasks.c **** 	{
 1218              		.loc 1 1410 0
 1219              		.cfi_startproc
 1220 0000 80B5     		push	{r7, lr}
 1221              		.cfi_def_cfa_offset 8
 1222              		.cfi_offset 7, -8
 1223              		.cfi_offset 14, -4
 1224 0002 86B0     		sub	sp, sp, #24
 1225              		.cfi_def_cfa_offset 32
 1226 0004 00AF     		add	r7, sp, #0
 1227              		.cfi_def_cfa_register 7
 1228 0006 7860     		str	r0, [r7, #4]
 1229 0008 3960     		str	r1, [r7]
1411:../freertos/tasks.c **** 	TCB_t *pxTCB;
1412:../freertos/tasks.c **** 	UBaseType_t uxCurrentBasePriority, uxPriorityUsedOnEntry;
1413:../freertos/tasks.c **** 	BaseType_t xYieldRequired = pdFALSE;
 1230              		.loc 1 1413 0
 1231 000a 0023     		mov	r3, #0
 1232 000c 7B61     		str	r3, [r7, #20]
1414:../freertos/tasks.c **** 
1415:../freertos/tasks.c **** 		configASSERT( ( uxNewPriority < configMAX_PRIORITIES ) );
 1233              		.loc 1 1415 0
 1234 000e 3B68     		ldr	r3, [r7]
 1235 0010 042B     		cmp	r3, #4
 1236 0012 01D9     		bls	.L89
 1237              		.loc 1 1415 0 is_stmt 0 discriminator 1
 1238              	@ 1415 "../freertos/tasks.c" 1
 1239 0014 72B6     		 cpsid i 
 1240              	@ 0 "" 2
 1241              		.code	16
 1242              	.L90:
 1243 0016 FEE7     		b	.L90
 1244              	.L89:
1416:../freertos/tasks.c **** 
1417:../freertos/tasks.c **** 		/* Ensure the new priority is valid. */
1418:../freertos/tasks.c **** 		if( uxNewPriority >= ( UBaseType_t ) configMAX_PRIORITIES )
 1245              		.loc 1 1418 0 is_stmt 1
 1246 0018 3B68     		ldr	r3, [r7]
 1247 001a 042B     		cmp	r3, #4
 1248 001c 01D9     		bls	.L91
1419:../freertos/tasks.c **** 		{
1420:../freertos/tasks.c **** 			uxNewPriority = ( UBaseType_t ) configMAX_PRIORITIES - ( UBaseType_t ) 1U;
 1249              		.loc 1 1420 0
 1250 001e 0423     		mov	r3, #4
 1251 0020 3B60     		str	r3, [r7]
 1252              	.L91:
1421:../freertos/tasks.c **** 		}
1422:../freertos/tasks.c **** 		else
1423:../freertos/tasks.c **** 		{
1424:../freertos/tasks.c **** 			mtCOVERAGE_TEST_MARKER();
1425:../freertos/tasks.c **** 		}
1426:../freertos/tasks.c **** 
1427:../freertos/tasks.c **** 		taskENTER_CRITICAL();
 1253              		.loc 1 1427 0
 1254 0022 FFF7FEFF 		bl	vPortEnterCritical
1428:../freertos/tasks.c **** 		{
1429:../freertos/tasks.c **** 			/* If null is passed in here then it is the priority of the calling
1430:../freertos/tasks.c **** 			task that is being changed. */
1431:../freertos/tasks.c **** 			pxTCB = prvGetTCBFromHandle( xTask );
 1255              		.loc 1 1431 0
 1256 0026 7B68     		ldr	r3, [r7, #4]
 1257 0028 002B     		cmp	r3, #0
 1258 002a 02D1     		bne	.L92
 1259              		.loc 1 1431 0 is_stmt 0 discriminator 1
 1260 002c 394B     		ldr	r3, .L103
 1261 002e 1B68     		ldr	r3, [r3]
 1262 0030 00E0     		b	.L93
 1263              	.L92:
 1264              		.loc 1 1431 0 discriminator 2
 1265 0032 7B68     		ldr	r3, [r7, #4]
 1266              	.L93:
 1267              		.loc 1 1431 0 discriminator 3
 1268 0034 3B61     		str	r3, [r7, #16]
1432:../freertos/tasks.c **** 
1433:../freertos/tasks.c **** 			traceTASK_PRIORITY_SET( pxTCB, uxNewPriority );
1434:../freertos/tasks.c **** 
1435:../freertos/tasks.c **** 			#if ( configUSE_MUTEXES == 1 )
1436:../freertos/tasks.c **** 			{
1437:../freertos/tasks.c **** 				uxCurrentBasePriority = pxTCB->uxBasePriority;
 1269              		.loc 1 1437 0 is_stmt 1 discriminator 3
 1270 0036 3B69     		ldr	r3, [r7, #16]
 1271 0038 1B6D     		ldr	r3, [r3, #80]
 1272 003a FB60     		str	r3, [r7, #12]
1438:../freertos/tasks.c **** 			}
1439:../freertos/tasks.c **** 			#else
1440:../freertos/tasks.c **** 			{
1441:../freertos/tasks.c **** 				uxCurrentBasePriority = pxTCB->uxPriority;
1442:../freertos/tasks.c **** 			}
1443:../freertos/tasks.c **** 			#endif
1444:../freertos/tasks.c **** 
1445:../freertos/tasks.c **** 			if( uxCurrentBasePriority != uxNewPriority )
 1273              		.loc 1 1445 0 discriminator 3
 1274 003c FA68     		ldr	r2, [r7, #12]
 1275 003e 3B68     		ldr	r3, [r7]
 1276 0040 9A42     		cmp	r2, r3
 1277 0042 62D0     		beq	.L94
1446:../freertos/tasks.c **** 			{
1447:../freertos/tasks.c **** 				/* The priority change may have readied a task of higher
1448:../freertos/tasks.c **** 				priority than the calling task. */
1449:../freertos/tasks.c **** 				if( uxNewPriority > uxCurrentBasePriority )
 1278              		.loc 1 1449 0
 1279 0044 3A68     		ldr	r2, [r7]
 1280 0046 FB68     		ldr	r3, [r7, #12]
 1281 0048 9A42     		cmp	r2, r3
 1282 004a 0DD9     		bls	.L95
1450:../freertos/tasks.c **** 				{
1451:../freertos/tasks.c **** 					if( pxTCB != pxCurrentTCB )
 1283              		.loc 1 1451 0
 1284 004c 314B     		ldr	r3, .L103
 1285 004e 1B68     		ldr	r3, [r3]
 1286 0050 3A69     		ldr	r2, [r7, #16]
 1287 0052 9A42     		cmp	r2, r3
 1288 0054 0FD0     		beq	.L96
1452:../freertos/tasks.c **** 					{
1453:../freertos/tasks.c **** 						/* The priority of a task other than the currently
1454:../freertos/tasks.c **** 						running task is being raised.  Is the priority being
1455:../freertos/tasks.c **** 						raised above that of the running task? */
1456:../freertos/tasks.c **** 						if( uxNewPriority >= pxCurrentTCB->uxPriority )
 1289              		.loc 1 1456 0
 1290 0056 2F4B     		ldr	r3, .L103
 1291 0058 1B68     		ldr	r3, [r3]
 1292 005a DA6A     		ldr	r2, [r3, #44]
 1293 005c 3B68     		ldr	r3, [r7]
 1294 005e 9A42     		cmp	r2, r3
 1295 0060 09D8     		bhi	.L96
1457:../freertos/tasks.c **** 						{
1458:../freertos/tasks.c **** 							xYieldRequired = pdTRUE;
 1296              		.loc 1 1458 0
 1297 0062 0123     		mov	r3, #1
 1298 0064 7B61     		str	r3, [r7, #20]
 1299 0066 06E0     		b	.L96
 1300              	.L95:
1459:../freertos/tasks.c **** 						}
1460:../freertos/tasks.c **** 						else
1461:../freertos/tasks.c **** 						{
1462:../freertos/tasks.c **** 							mtCOVERAGE_TEST_MARKER();
1463:../freertos/tasks.c **** 						}
1464:../freertos/tasks.c **** 					}
1465:../freertos/tasks.c **** 					else
1466:../freertos/tasks.c **** 					{
1467:../freertos/tasks.c **** 						/* The priority of the running task is being raised,
1468:../freertos/tasks.c **** 						but the running task must already be the highest
1469:../freertos/tasks.c **** 						priority task able to run so no yield is required. */
1470:../freertos/tasks.c **** 					}
1471:../freertos/tasks.c **** 				}
1472:../freertos/tasks.c **** 				else if( pxTCB == pxCurrentTCB )
 1301              		.loc 1 1472 0
 1302 0068 2A4B     		ldr	r3, .L103
 1303 006a 1B68     		ldr	r3, [r3]
 1304 006c 3A69     		ldr	r2, [r7, #16]
 1305 006e 9A42     		cmp	r2, r3
 1306 0070 01D1     		bne	.L96
1473:../freertos/tasks.c **** 				{
1474:../freertos/tasks.c **** 					/* Setting the priority of the running task down means
1475:../freertos/tasks.c **** 					there may now be another task of higher priority that
1476:../freertos/tasks.c **** 					is ready to execute. */
1477:../freertos/tasks.c **** 					xYieldRequired = pdTRUE;
 1307              		.loc 1 1477 0
 1308 0072 0123     		mov	r3, #1
 1309 0074 7B61     		str	r3, [r7, #20]
 1310              	.L96:
1478:../freertos/tasks.c **** 				}
1479:../freertos/tasks.c **** 				else
1480:../freertos/tasks.c **** 				{
1481:../freertos/tasks.c **** 					/* Setting the priority of any other task down does not
1482:../freertos/tasks.c **** 					require a yield as the running task must be above the
1483:../freertos/tasks.c **** 					new priority of the task being modified. */
1484:../freertos/tasks.c **** 				}
1485:../freertos/tasks.c **** 
1486:../freertos/tasks.c **** 				/* Remember the ready list the task might be referenced from
1487:../freertos/tasks.c **** 				before its uxPriority member is changed so the
1488:../freertos/tasks.c **** 				taskRESET_READY_PRIORITY() macro can function correctly. */
1489:../freertos/tasks.c **** 				uxPriorityUsedOnEntry = pxTCB->uxPriority;
 1311              		.loc 1 1489 0
 1312 0076 3B69     		ldr	r3, [r7, #16]
 1313 0078 DB6A     		ldr	r3, [r3, #44]
 1314 007a BB60     		str	r3, [r7, #8]
1490:../freertos/tasks.c **** 
1491:../freertos/tasks.c **** 				#if ( configUSE_MUTEXES == 1 )
1492:../freertos/tasks.c **** 				{
1493:../freertos/tasks.c **** 					/* Only change the priority being used if the task is not
1494:../freertos/tasks.c **** 					currently using an inherited priority. */
1495:../freertos/tasks.c **** 					if( pxTCB->uxBasePriority == pxTCB->uxPriority )
 1315              		.loc 1 1495 0
 1316 007c 3B69     		ldr	r3, [r7, #16]
 1317 007e 1A6D     		ldr	r2, [r3, #80]
 1318 0080 3B69     		ldr	r3, [r7, #16]
 1319 0082 DB6A     		ldr	r3, [r3, #44]
 1320 0084 9A42     		cmp	r2, r3
 1321 0086 02D1     		bne	.L97
1496:../freertos/tasks.c **** 					{
1497:../freertos/tasks.c **** 						pxTCB->uxPriority = uxNewPriority;
 1322              		.loc 1 1497 0
 1323 0088 3B69     		ldr	r3, [r7, #16]
 1324 008a 3A68     		ldr	r2, [r7]
 1325 008c DA62     		str	r2, [r3, #44]
 1326              	.L97:
1498:../freertos/tasks.c **** 					}
1499:../freertos/tasks.c **** 					else
1500:../freertos/tasks.c **** 					{
1501:../freertos/tasks.c **** 						mtCOVERAGE_TEST_MARKER();
1502:../freertos/tasks.c **** 					}
1503:../freertos/tasks.c **** 
1504:../freertos/tasks.c **** 					/* The base priority gets set whatever. */
1505:../freertos/tasks.c **** 					pxTCB->uxBasePriority = uxNewPriority;
 1327              		.loc 1 1505 0
 1328 008e 3B69     		ldr	r3, [r7, #16]
 1329 0090 3A68     		ldr	r2, [r7]
 1330 0092 1A65     		str	r2, [r3, #80]
1506:../freertos/tasks.c **** 				}
1507:../freertos/tasks.c **** 				#else
1508:../freertos/tasks.c **** 				{
1509:../freertos/tasks.c **** 					pxTCB->uxPriority = uxNewPriority;
1510:../freertos/tasks.c **** 				}
1511:../freertos/tasks.c **** 				#endif
1512:../freertos/tasks.c **** 
1513:../freertos/tasks.c **** 				/* Only reset the event list item value if the value is not
1514:../freertos/tasks.c **** 				being used for anything else. */
1515:../freertos/tasks.c **** 				if( ( listGET_LIST_ITEM_VALUE( &( pxTCB->xEventListItem ) ) & taskEVENT_LIST_ITEM_VALUE_IN_USE 
 1331              		.loc 1 1515 0
 1332 0094 3B69     		ldr	r3, [r7, #16]
 1333 0096 9B69     		ldr	r3, [r3, #24]
 1334 0098 002B     		cmp	r3, #0
 1335 009a 04DB     		blt	.L98
1516:../freertos/tasks.c **** 				{
1517:../freertos/tasks.c **** 					listSET_LIST_ITEM_VALUE( &( pxTCB->xEventListItem ), ( ( TickType_t ) configMAX_PRIORITIES - (
 1336              		.loc 1 1517 0
 1337 009c 3B68     		ldr	r3, [r7]
 1338 009e 0522     		mov	r2, #5
 1339 00a0 D21A     		sub	r2, r2, r3
 1340 00a2 3B69     		ldr	r3, [r7, #16]
 1341 00a4 9A61     		str	r2, [r3, #24]
 1342              	.L98:
1518:../freertos/tasks.c **** 				}
1519:../freertos/tasks.c **** 				else
1520:../freertos/tasks.c **** 				{
1521:../freertos/tasks.c **** 					mtCOVERAGE_TEST_MARKER();
1522:../freertos/tasks.c **** 				}
1523:../freertos/tasks.c **** 
1524:../freertos/tasks.c **** 				/* If the task is in the blocked or suspended list we need do
1525:../freertos/tasks.c **** 				nothing more than change it's priority variable. However, if
1526:../freertos/tasks.c **** 				the task is in a ready list it needs to be removed and placed
1527:../freertos/tasks.c **** 				in the list appropriate to its new priority. */
1528:../freertos/tasks.c **** 				if( listIS_CONTAINED_WITHIN( &( pxReadyTasksLists[ uxPriorityUsedOnEntry ] ), &( pxTCB->xStateL
 1343              		.loc 1 1528 0
 1344 00a6 3B69     		ldr	r3, [r7, #16]
 1345 00a8 5969     		ldr	r1, [r3, #20]
 1346 00aa BA68     		ldr	r2, [r7, #8]
 1347 00ac 131C     		mov	r3, r2
 1348 00ae 9B00     		lsl	r3, r3, #2
 1349 00b0 9B18     		add	r3, r3, r2
 1350 00b2 9B00     		lsl	r3, r3, #2
 1351 00b4 184A     		ldr	r2, .L103+4
 1352 00b6 9B18     		add	r3, r3, r2
 1353 00b8 9942     		cmp	r1, r3
 1354 00ba 01D1     		bne	.L99
 1355              		.loc 1 1528 0 is_stmt 0 discriminator 1
 1356 00bc 0123     		mov	r3, #1
 1357 00be 00E0     		b	.L100
 1358              	.L99:
 1359              		.loc 1 1528 0 discriminator 2
 1360 00c0 0023     		mov	r3, #0
 1361              	.L100:
 1362              		.loc 1 1528 0 discriminator 3
 1363 00c2 002B     		cmp	r3, #0
 1364 00c4 1CD0     		beq	.L101
1529:../freertos/tasks.c **** 				{
1530:../freertos/tasks.c **** 					/* The task is currently in its ready list - remove before adding
1531:../freertos/tasks.c **** 					it to it's new ready list.  As we are in a critical section we
1532:../freertos/tasks.c **** 					can do this even if the scheduler is suspended. */
1533:../freertos/tasks.c **** 					if( uxListRemove( &( pxTCB->xStateListItem ) ) == ( UBaseType_t ) 0 )
 1365              		.loc 1 1533 0 is_stmt 1
 1366 00c6 3B69     		ldr	r3, [r7, #16]
 1367 00c8 0433     		add	r3, r3, #4
 1368 00ca 181C     		mov	r0, r3
 1369 00cc FFF7FEFF 		bl	uxListRemove
1534:../freertos/tasks.c **** 					{
1535:../freertos/tasks.c **** 						/* It is known that the task is in its ready list so
1536:../freertos/tasks.c **** 						there is no need to check again and the port level
1537:../freertos/tasks.c **** 						reset macro can be called directly. */
1538:../freertos/tasks.c **** 						portRESET_READY_PRIORITY( uxPriorityUsedOnEntry, uxTopReadyPriority );
1539:../freertos/tasks.c **** 					}
1540:../freertos/tasks.c **** 					else
1541:../freertos/tasks.c **** 					{
1542:../freertos/tasks.c **** 						mtCOVERAGE_TEST_MARKER();
1543:../freertos/tasks.c **** 					}
1544:../freertos/tasks.c **** 					prvAddTaskToReadyList( pxTCB );
 1370              		.loc 1 1544 0
 1371 00d0 3B69     		ldr	r3, [r7, #16]
 1372 00d2 DA6A     		ldr	r2, [r3, #44]
 1373 00d4 114B     		ldr	r3, .L103+8
 1374 00d6 1B68     		ldr	r3, [r3]
 1375 00d8 9A42     		cmp	r2, r3
 1376 00da 03D9     		bls	.L102
 1377              		.loc 1 1544 0 is_stmt 0 discriminator 1
 1378 00dc 3B69     		ldr	r3, [r7, #16]
 1379 00de DA6A     		ldr	r2, [r3, #44]
 1380 00e0 0E4B     		ldr	r3, .L103+8
 1381 00e2 1A60     		str	r2, [r3]
 1382              	.L102:
 1383              		.loc 1 1544 0 discriminator 2
 1384 00e4 3B69     		ldr	r3, [r7, #16]
 1385 00e6 DA6A     		ldr	r2, [r3, #44]
 1386 00e8 131C     		mov	r3, r2
 1387 00ea 9B00     		lsl	r3, r3, #2
 1388 00ec 9B18     		add	r3, r3, r2
 1389 00ee 9B00     		lsl	r3, r3, #2
 1390 00f0 094A     		ldr	r2, .L103+4
 1391 00f2 9A18     		add	r2, r3, r2
 1392 00f4 3B69     		ldr	r3, [r7, #16]
 1393 00f6 0433     		add	r3, r3, #4
 1394 00f8 101C     		mov	r0, r2
 1395 00fa 191C     		mov	r1, r3
 1396 00fc FFF7FEFF 		bl	vListInsertEnd
 1397              	.L101:
1545:../freertos/tasks.c **** 				}
1546:../freertos/tasks.c **** 				else
1547:../freertos/tasks.c **** 				{
1548:../freertos/tasks.c **** 					mtCOVERAGE_TEST_MARKER();
1549:../freertos/tasks.c **** 				}
1550:../freertos/tasks.c **** 
1551:../freertos/tasks.c **** 				if( xYieldRequired != pdFALSE )
 1398              		.loc 1 1551 0 is_stmt 1
 1399 0100 7B69     		ldr	r3, [r7, #20]
 1400 0102 002B     		cmp	r3, #0
 1401 0104 01D0     		beq	.L94
1552:../freertos/tasks.c **** 				{
1553:../freertos/tasks.c **** 					taskYIELD_IF_USING_PREEMPTION();
 1402              		.loc 1 1553 0
 1403 0106 FFF7FEFF 		bl	vPortYield
 1404              	.L94:
1554:../freertos/tasks.c **** 				}
1555:../freertos/tasks.c **** 				else
1556:../freertos/tasks.c **** 				{
1557:../freertos/tasks.c **** 					mtCOVERAGE_TEST_MARKER();
1558:../freertos/tasks.c **** 				}
1559:../freertos/tasks.c **** 
1560:../freertos/tasks.c **** 				/* Remove compiler warning about unused variables when the port
1561:../freertos/tasks.c **** 				optimised task selection is not being used. */
1562:../freertos/tasks.c **** 				( void ) uxPriorityUsedOnEntry;
1563:../freertos/tasks.c **** 			}
1564:../freertos/tasks.c **** 		}
1565:../freertos/tasks.c **** 		taskEXIT_CRITICAL();
 1405              		.loc 1 1565 0
 1406 010a FFF7FEFF 		bl	vPortExitCritical
1566:../freertos/tasks.c **** 	}
 1407              		.loc 1 1566 0
 1408 010e BD46     		mov	sp, r7
 1409 0110 06B0     		add	sp, sp, #24
 1410              		@ sp needed
 1411 0112 80BD     		pop	{r7, pc}
 1412              	.L104:
 1413              		.align	2
 1414              	.L103:
 1415 0114 00000000 		.word	pxCurrentTCB
 1416 0118 00000000 		.word	pxReadyTasksLists
 1417 011c 00000000 		.word	uxTopReadyPriority
 1418              		.cfi_endproc
 1419              	.LFE9:
 1421              		.section	.text.vTaskSuspend,"ax",%progbits
 1422              		.align	2
 1423              		.global	vTaskSuspend
 1424              		.code	16
 1425              		.thumb_func
 1427              	vTaskSuspend:
 1428              	.LFB10:
1567:../freertos/tasks.c **** 
1568:../freertos/tasks.c **** #endif /* INCLUDE_vTaskPrioritySet */
1569:../freertos/tasks.c **** /*-----------------------------------------------------------*/
1570:../freertos/tasks.c **** 
1571:../freertos/tasks.c **** #if ( INCLUDE_vTaskSuspend == 1 )
1572:../freertos/tasks.c **** 
1573:../freertos/tasks.c **** 	void vTaskSuspend( TaskHandle_t xTaskToSuspend )
1574:../freertos/tasks.c **** 	{
 1429              		.loc 1 1574 0
 1430              		.cfi_startproc
 1431 0000 80B5     		push	{r7, lr}
 1432              		.cfi_def_cfa_offset 8
 1433              		.cfi_offset 7, -8
 1434              		.cfi_offset 14, -4
 1435 0002 84B0     		sub	sp, sp, #16
 1436              		.cfi_def_cfa_offset 24
 1437 0004 00AF     		add	r7, sp, #0
 1438              		.cfi_def_cfa_register 7
 1439 0006 7860     		str	r0, [r7, #4]
1575:../freertos/tasks.c **** 	TCB_t *pxTCB;
1576:../freertos/tasks.c **** 
1577:../freertos/tasks.c **** 		taskENTER_CRITICAL();
 1440              		.loc 1 1577 0
 1441 0008 FFF7FEFF 		bl	vPortEnterCritical
1578:../freertos/tasks.c **** 		{
1579:../freertos/tasks.c **** 			/* If null is passed in here then it is the running task that is
1580:../freertos/tasks.c **** 			being suspended. */
1581:../freertos/tasks.c **** 			pxTCB = prvGetTCBFromHandle( xTaskToSuspend );
 1442              		.loc 1 1581 0
 1443 000c 7B68     		ldr	r3, [r7, #4]
 1444 000e 002B     		cmp	r3, #0
 1445 0010 02D1     		bne	.L106
 1446              		.loc 1 1581 0 is_stmt 0 discriminator 1
 1447 0012 234B     		ldr	r3, .L116
 1448 0014 1B68     		ldr	r3, [r3]
 1449 0016 00E0     		b	.L107
 1450              	.L106:
 1451              		.loc 1 1581 0 discriminator 2
 1452 0018 7B68     		ldr	r3, [r7, #4]
 1453              	.L107:
 1454              		.loc 1 1581 0 discriminator 3
 1455 001a FB60     		str	r3, [r7, #12]
1582:../freertos/tasks.c **** 
1583:../freertos/tasks.c **** 			traceTASK_SUSPEND( pxTCB );
1584:../freertos/tasks.c **** 
1585:../freertos/tasks.c **** 			/* Remove task from the ready/delayed list and place in the
1586:../freertos/tasks.c **** 			suspended list. */
1587:../freertos/tasks.c **** 			if( uxListRemove( &( pxTCB->xStateListItem ) ) == ( UBaseType_t ) 0 )
 1456              		.loc 1 1587 0 is_stmt 1 discriminator 3
 1457 001c FB68     		ldr	r3, [r7, #12]
 1458 001e 0433     		add	r3, r3, #4
 1459 0020 181C     		mov	r0, r3
 1460 0022 FFF7FEFF 		bl	uxListRemove
1588:../freertos/tasks.c **** 			{
1589:../freertos/tasks.c **** 				taskRESET_READY_PRIORITY( pxTCB->uxPriority );
1590:../freertos/tasks.c **** 			}
1591:../freertos/tasks.c **** 			else
1592:../freertos/tasks.c **** 			{
1593:../freertos/tasks.c **** 				mtCOVERAGE_TEST_MARKER();
1594:../freertos/tasks.c **** 			}
1595:../freertos/tasks.c **** 
1596:../freertos/tasks.c **** 			/* Is the task waiting on an event also? */
1597:../freertos/tasks.c **** 			if( listLIST_ITEM_CONTAINER( &( pxTCB->xEventListItem ) ) != NULL )
 1461              		.loc 1 1597 0 discriminator 3
 1462 0026 FB68     		ldr	r3, [r7, #12]
 1463 0028 9B6A     		ldr	r3, [r3, #40]
 1464 002a 002B     		cmp	r3, #0
 1465 002c 04D0     		beq	.L108
1598:../freertos/tasks.c **** 			{
1599:../freertos/tasks.c **** 				( void ) uxListRemove( &( pxTCB->xEventListItem ) );
 1466              		.loc 1 1599 0
 1467 002e FB68     		ldr	r3, [r7, #12]
 1468 0030 1833     		add	r3, r3, #24
 1469 0032 181C     		mov	r0, r3
 1470 0034 FFF7FEFF 		bl	uxListRemove
 1471              	.L108:
1600:../freertos/tasks.c **** 			}
1601:../freertos/tasks.c **** 			else
1602:../freertos/tasks.c **** 			{
1603:../freertos/tasks.c **** 				mtCOVERAGE_TEST_MARKER();
1604:../freertos/tasks.c **** 			}
1605:../freertos/tasks.c **** 
1606:../freertos/tasks.c **** 			vListInsertEnd( &xSuspendedTaskList, &( pxTCB->xStateListItem ) );
 1472              		.loc 1 1606 0
 1473 0038 FB68     		ldr	r3, [r7, #12]
 1474 003a 0433     		add	r3, r3, #4
 1475 003c 194A     		ldr	r2, .L116+4
 1476 003e 101C     		mov	r0, r2
 1477 0040 191C     		mov	r1, r3
 1478 0042 FFF7FEFF 		bl	vListInsertEnd
1607:../freertos/tasks.c **** 		}
1608:../freertos/tasks.c **** 		taskEXIT_CRITICAL();
 1479              		.loc 1 1608 0
 1480 0046 FFF7FEFF 		bl	vPortExitCritical
1609:../freertos/tasks.c **** 
1610:../freertos/tasks.c **** 		if( xSchedulerRunning != pdFALSE )
 1481              		.loc 1 1610 0
 1482 004a 174B     		ldr	r3, .L116+8
 1483 004c 1B68     		ldr	r3, [r3]
 1484 004e 002B     		cmp	r3, #0
 1485 0050 05D0     		beq	.L109
1611:../freertos/tasks.c **** 		{
1612:../freertos/tasks.c **** 			/* Reset the next expected unblock time in case it referred to the
1613:../freertos/tasks.c **** 			task that is now in the Suspended state. */
1614:../freertos/tasks.c **** 			taskENTER_CRITICAL();
 1486              		.loc 1 1614 0
 1487 0052 FFF7FEFF 		bl	vPortEnterCritical
1615:../freertos/tasks.c **** 			{
1616:../freertos/tasks.c **** 				prvResetNextTaskUnblockTime();
 1488              		.loc 1 1616 0
 1489 0056 FFF7FEFF 		bl	prvResetNextTaskUnblockTime
1617:../freertos/tasks.c **** 			}
1618:../freertos/tasks.c **** 			taskEXIT_CRITICAL();
 1490              		.loc 1 1618 0
 1491 005a FFF7FEFF 		bl	vPortExitCritical
 1492              	.L109:
1619:../freertos/tasks.c **** 		}
1620:../freertos/tasks.c **** 		else
1621:../freertos/tasks.c **** 		{
1622:../freertos/tasks.c **** 			mtCOVERAGE_TEST_MARKER();
1623:../freertos/tasks.c **** 		}
1624:../freertos/tasks.c **** 
1625:../freertos/tasks.c **** 		if( pxTCB == pxCurrentTCB )
 1493              		.loc 1 1625 0
 1494 005e 104B     		ldr	r3, .L116
 1495 0060 1B68     		ldr	r3, [r3]
 1496 0062 FA68     		ldr	r2, [r7, #12]
 1497 0064 9A42     		cmp	r2, r3
 1498 0066 18D1     		bne	.L105
1626:../freertos/tasks.c **** 		{
1627:../freertos/tasks.c **** 			if( xSchedulerRunning != pdFALSE )
 1499              		.loc 1 1627 0
 1500 0068 0F4B     		ldr	r3, .L116+8
 1501 006a 1B68     		ldr	r3, [r3]
 1502 006c 002B     		cmp	r3, #0
 1503 006e 08D0     		beq	.L111
1628:../freertos/tasks.c **** 			{
1629:../freertos/tasks.c **** 				/* The current task has just been suspended. */
1630:../freertos/tasks.c **** 				configASSERT( uxSchedulerSuspended == 0 );
 1504              		.loc 1 1630 0
 1505 0070 0E4B     		ldr	r3, .L116+12
 1506 0072 1B68     		ldr	r3, [r3]
 1507 0074 002B     		cmp	r3, #0
 1508 0076 01D0     		beq	.L112
 1509              		.loc 1 1630 0 is_stmt 0 discriminator 1
 1510              	@ 1630 "../freertos/tasks.c" 1
 1511 0078 72B6     		 cpsid i 
 1512              	@ 0 "" 2
 1513              		.code	16
 1514              	.L113:
 1515 007a FEE7     		b	.L113
 1516              	.L112:
1631:../freertos/tasks.c **** 				portYIELD_WITHIN_API();
 1517              		.loc 1 1631 0 is_stmt 1
 1518 007c FFF7FEFF 		bl	vPortYield
 1519 0080 0BE0     		b	.L105
 1520              	.L111:
1632:../freertos/tasks.c **** 			}
1633:../freertos/tasks.c **** 			else
1634:../freertos/tasks.c **** 			{
1635:../freertos/tasks.c **** 				/* The scheduler is not running, but the task that was pointed
1636:../freertos/tasks.c **** 				to by pxCurrentTCB has just been suspended and pxCurrentTCB
1637:../freertos/tasks.c **** 				must be adjusted to point to a different task. */
1638:../freertos/tasks.c **** 				if( listCURRENT_LIST_LENGTH( &xSuspendedTaskList ) == uxCurrentNumberOfTasks )
 1521              		.loc 1 1638 0
 1522 0082 084B     		ldr	r3, .L116+4
 1523 0084 1A68     		ldr	r2, [r3]
 1524 0086 0A4B     		ldr	r3, .L116+16
 1525 0088 1B68     		ldr	r3, [r3]
 1526 008a 9A42     		cmp	r2, r3
 1527 008c 03D1     		bne	.L115
1639:../freertos/tasks.c **** 				{
1640:../freertos/tasks.c **** 					/* No other tasks are ready, so set pxCurrentTCB back to
1641:../freertos/tasks.c **** 					NULL so when the next task is created pxCurrentTCB will
1642:../freertos/tasks.c **** 					be set to point to it no matter what its relative priority
1643:../freertos/tasks.c **** 					is. */
1644:../freertos/tasks.c **** 					pxCurrentTCB = NULL;
 1528              		.loc 1 1644 0
 1529 008e 044B     		ldr	r3, .L116
 1530 0090 0022     		mov	r2, #0
 1531 0092 1A60     		str	r2, [r3]
 1532 0094 01E0     		b	.L105
 1533              	.L115:
1645:../freertos/tasks.c **** 				}
1646:../freertos/tasks.c **** 				else
1647:../freertos/tasks.c **** 				{
1648:../freertos/tasks.c **** 					vTaskSwitchContext();
 1534              		.loc 1 1648 0
 1535 0096 FFF7FEFF 		bl	vTaskSwitchContext
 1536              	.L105:
1649:../freertos/tasks.c **** 				}
1650:../freertos/tasks.c **** 			}
1651:../freertos/tasks.c **** 		}
1652:../freertos/tasks.c **** 		else
1653:../freertos/tasks.c **** 		{
1654:../freertos/tasks.c **** 			mtCOVERAGE_TEST_MARKER();
1655:../freertos/tasks.c **** 		}
1656:../freertos/tasks.c **** 	}
 1537              		.loc 1 1656 0
 1538 009a BD46     		mov	sp, r7
 1539 009c 04B0     		add	sp, sp, #16
 1540              		@ sp needed
 1541 009e 80BD     		pop	{r7, pc}
 1542              	.L117:
 1543              		.align	2
 1544              	.L116:
 1545 00a0 00000000 		.word	pxCurrentTCB
 1546 00a4 00000000 		.word	xSuspendedTaskList
 1547 00a8 00000000 		.word	xSchedulerRunning
 1548 00ac 00000000 		.word	uxSchedulerSuspended
 1549 00b0 00000000 		.word	uxCurrentNumberOfTasks
 1550              		.cfi_endproc
 1551              	.LFE10:
 1553              		.section	.text.prvTaskIsTaskSuspended,"ax",%progbits
 1554              		.align	2
 1555              		.code	16
 1556              		.thumb_func
 1558              	prvTaskIsTaskSuspended:
 1559              	.LFB11:
1657:../freertos/tasks.c **** 
1658:../freertos/tasks.c **** #endif /* INCLUDE_vTaskSuspend */
1659:../freertos/tasks.c **** /*-----------------------------------------------------------*/
1660:../freertos/tasks.c **** 
1661:../freertos/tasks.c **** #if ( INCLUDE_vTaskSuspend == 1 )
1662:../freertos/tasks.c **** 
1663:../freertos/tasks.c **** 	static BaseType_t prvTaskIsTaskSuspended( const TaskHandle_t xTask )
1664:../freertos/tasks.c **** 	{
 1560              		.loc 1 1664 0
 1561              		.cfi_startproc
 1562 0000 80B5     		push	{r7, lr}
 1563              		.cfi_def_cfa_offset 8
 1564              		.cfi_offset 7, -8
 1565              		.cfi_offset 14, -4
 1566 0002 84B0     		sub	sp, sp, #16
 1567              		.cfi_def_cfa_offset 24
 1568 0004 00AF     		add	r7, sp, #0
 1569              		.cfi_def_cfa_register 7
 1570 0006 7860     		str	r0, [r7, #4]
1665:../freertos/tasks.c **** 	BaseType_t xReturn = pdFALSE;
 1571              		.loc 1 1665 0
 1572 0008 0023     		mov	r3, #0
 1573 000a FB60     		str	r3, [r7, #12]
1666:../freertos/tasks.c **** 	const TCB_t * const pxTCB = ( TCB_t * ) xTask;
 1574              		.loc 1 1666 0
 1575 000c 7B68     		ldr	r3, [r7, #4]
 1576 000e BB60     		str	r3, [r7, #8]
1667:../freertos/tasks.c **** 
1668:../freertos/tasks.c **** 		/* Accesses xPendingReadyList so must be called from a critical
1669:../freertos/tasks.c **** 		section. */
1670:../freertos/tasks.c **** 
1671:../freertos/tasks.c **** 		/* It does not make sense to check if the calling task is suspended. */
1672:../freertos/tasks.c **** 		configASSERT( xTask );
 1577              		.loc 1 1672 0
 1578 0010 7B68     		ldr	r3, [r7, #4]
 1579 0012 002B     		cmp	r3, #0
 1580 0014 01D1     		bne	.L119
 1581              		.loc 1 1672 0 is_stmt 0 discriminator 1
 1582              	@ 1672 "../freertos/tasks.c" 1
 1583 0016 72B6     		 cpsid i 
 1584              	@ 0 "" 2
 1585              		.code	16
 1586              	.L120:
 1587 0018 FEE7     		b	.L120
 1588              	.L119:
1673:../freertos/tasks.c **** 
1674:../freertos/tasks.c **** 		/* Is the task being resumed actually in the suspended list? */
1675:../freertos/tasks.c **** 		if( listIS_CONTAINED_WITHIN( &xSuspendedTaskList, &( pxTCB->xStateListItem ) ) != pdFALSE )
 1589              		.loc 1 1675 0 is_stmt 1
 1590 001a BB68     		ldr	r3, [r7, #8]
 1591 001c 5A69     		ldr	r2, [r3, #20]
 1592 001e 0E4B     		ldr	r3, .L127
 1593 0020 9A42     		cmp	r2, r3
 1594 0022 01D1     		bne	.L121
 1595              		.loc 1 1675 0 is_stmt 0 discriminator 1
 1596 0024 0123     		mov	r3, #1
 1597 0026 00E0     		b	.L122
 1598              	.L121:
 1599              		.loc 1 1675 0 discriminator 2
 1600 0028 0023     		mov	r3, #0
 1601              	.L122:
 1602              		.loc 1 1675 0 discriminator 3
 1603 002a 002B     		cmp	r3, #0
 1604 002c 0FD0     		beq	.L123
1676:../freertos/tasks.c **** 		{
1677:../freertos/tasks.c **** 			/* Has the task already been resumed from within an ISR? */
1678:../freertos/tasks.c **** 			if( listIS_CONTAINED_WITHIN( &xPendingReadyList, &( pxTCB->xEventListItem ) ) == pdFALSE )
 1605              		.loc 1 1678 0 is_stmt 1
 1606 002e BB68     		ldr	r3, [r7, #8]
 1607 0030 9A6A     		ldr	r2, [r3, #40]
 1608 0032 0A4B     		ldr	r3, .L127+4
 1609 0034 9A42     		cmp	r2, r3
 1610 0036 0AD0     		beq	.L123
1679:../freertos/tasks.c **** 			{
1680:../freertos/tasks.c **** 				/* Is it in the suspended list because it is in the	Suspended
1681:../freertos/tasks.c **** 				state, or because is is blocked with no timeout? */
1682:../freertos/tasks.c **** 				if( listIS_CONTAINED_WITHIN( NULL, &( pxTCB->xEventListItem ) ) != pdFALSE )
 1611              		.loc 1 1682 0
 1612 0038 BB68     		ldr	r3, [r7, #8]
 1613 003a 9B6A     		ldr	r3, [r3, #40]
 1614 003c 002B     		cmp	r3, #0
 1615 003e 01D1     		bne	.L124
 1616              		.loc 1 1682 0 is_stmt 0 discriminator 1
 1617 0040 0123     		mov	r3, #1
 1618 0042 00E0     		b	.L125
 1619              	.L124:
 1620              		.loc 1 1682 0 discriminator 2
 1621 0044 0023     		mov	r3, #0
 1622              	.L125:
 1623              		.loc 1 1682 0 discriminator 3
 1624 0046 002B     		cmp	r3, #0
 1625 0048 01D0     		beq	.L123
1683:../freertos/tasks.c **** 				{
1684:../freertos/tasks.c **** 					xReturn = pdTRUE;
 1626              		.loc 1 1684 0 is_stmt 1
 1627 004a 0123     		mov	r3, #1
 1628 004c FB60     		str	r3, [r7, #12]
 1629              	.L123:
1685:../freertos/tasks.c **** 				}
1686:../freertos/tasks.c **** 				else
1687:../freertos/tasks.c **** 				{
1688:../freertos/tasks.c **** 					mtCOVERAGE_TEST_MARKER();
1689:../freertos/tasks.c **** 				}
1690:../freertos/tasks.c **** 			}
1691:../freertos/tasks.c **** 			else
1692:../freertos/tasks.c **** 			{
1693:../freertos/tasks.c **** 				mtCOVERAGE_TEST_MARKER();
1694:../freertos/tasks.c **** 			}
1695:../freertos/tasks.c **** 		}
1696:../freertos/tasks.c **** 		else
1697:../freertos/tasks.c **** 		{
1698:../freertos/tasks.c **** 			mtCOVERAGE_TEST_MARKER();
1699:../freertos/tasks.c **** 		}
1700:../freertos/tasks.c **** 
1701:../freertos/tasks.c **** 		return xReturn;
 1630              		.loc 1 1701 0
 1631 004e FB68     		ldr	r3, [r7, #12]
1702:../freertos/tasks.c **** 	} /*lint !e818 xTask cannot be a pointer to const because it is a typedef. */
 1632              		.loc 1 1702 0
 1633 0050 181C     		mov	r0, r3
 1634 0052 BD46     		mov	sp, r7
 1635 0054 04B0     		add	sp, sp, #16
 1636              		@ sp needed
 1637 0056 80BD     		pop	{r7, pc}
 1638              	.L128:
 1639              		.align	2
 1640              	.L127:
 1641 0058 00000000 		.word	xSuspendedTaskList
 1642 005c 00000000 		.word	xPendingReadyList
 1643              		.cfi_endproc
 1644              	.LFE11:
 1646              		.section	.text.vTaskResume,"ax",%progbits
 1647              		.align	2
 1648              		.global	vTaskResume
 1649              		.code	16
 1650              		.thumb_func
 1652              	vTaskResume:
 1653              	.LFB12:
1703:../freertos/tasks.c **** 
1704:../freertos/tasks.c **** #endif /* INCLUDE_vTaskSuspend */
1705:../freertos/tasks.c **** /*-----------------------------------------------------------*/
1706:../freertos/tasks.c **** 
1707:../freertos/tasks.c **** #if ( INCLUDE_vTaskSuspend == 1 )
1708:../freertos/tasks.c **** 
1709:../freertos/tasks.c **** 	void vTaskResume( TaskHandle_t xTaskToResume )
1710:../freertos/tasks.c **** 	{
 1654              		.loc 1 1710 0
 1655              		.cfi_startproc
 1656 0000 80B5     		push	{r7, lr}
 1657              		.cfi_def_cfa_offset 8
 1658              		.cfi_offset 7, -8
 1659              		.cfi_offset 14, -4
 1660 0002 84B0     		sub	sp, sp, #16
 1661              		.cfi_def_cfa_offset 24
 1662 0004 00AF     		add	r7, sp, #0
 1663              		.cfi_def_cfa_register 7
 1664 0006 7860     		str	r0, [r7, #4]
1711:../freertos/tasks.c **** 	TCB_t * const pxTCB = ( TCB_t * ) xTaskToResume;
 1665              		.loc 1 1711 0
 1666 0008 7B68     		ldr	r3, [r7, #4]
 1667 000a FB60     		str	r3, [r7, #12]
1712:../freertos/tasks.c **** 
1713:../freertos/tasks.c **** 		/* It does not make sense to resume the calling task. */
1714:../freertos/tasks.c **** 		configASSERT( xTaskToResume );
 1668              		.loc 1 1714 0
 1669 000c 7B68     		ldr	r3, [r7, #4]
 1670 000e 002B     		cmp	r3, #0
 1671 0010 01D1     		bne	.L130
 1672              		.loc 1 1714 0 is_stmt 0 discriminator 1
 1673              	@ 1714 "../freertos/tasks.c" 1
 1674 0012 72B6     		 cpsid i 
 1675              	@ 0 "" 2
 1676              		.code	16
 1677              	.L131:
 1678 0014 FEE7     		b	.L131
 1679              	.L130:
1715:../freertos/tasks.c **** 
1716:../freertos/tasks.c **** 		/* The parameter cannot be NULL as it is impossible to resume the
1717:../freertos/tasks.c **** 		currently executing task. */
1718:../freertos/tasks.c **** 		if( ( pxTCB != NULL ) && ( pxTCB != pxCurrentTCB ) )
 1680              		.loc 1 1718 0 is_stmt 1
 1681 0016 FB68     		ldr	r3, [r7, #12]
 1682 0018 002B     		cmp	r3, #0
 1683 001a 35D0     		beq	.L129
 1684              		.loc 1 1718 0 is_stmt 0 discriminator 1
 1685 001c 1C4B     		ldr	r3, .L135
 1686 001e 1B68     		ldr	r3, [r3]
 1687 0020 FA68     		ldr	r2, [r7, #12]
 1688 0022 9A42     		cmp	r2, r3
 1689 0024 30D0     		beq	.L129
1719:../freertos/tasks.c **** 		{
1720:../freertos/tasks.c **** 			taskENTER_CRITICAL();
 1690              		.loc 1 1720 0 is_stmt 1
 1691 0026 FFF7FEFF 		bl	vPortEnterCritical
1721:../freertos/tasks.c **** 			{
1722:../freertos/tasks.c **** 				if( prvTaskIsTaskSuspended( pxTCB ) != pdFALSE )
 1692              		.loc 1 1722 0
 1693 002a FB68     		ldr	r3, [r7, #12]
 1694 002c 181C     		mov	r0, r3
 1695 002e FFF7FEFF 		bl	prvTaskIsTaskSuspended
 1696 0032 031C     		mov	r3, r0
 1697 0034 002B     		cmp	r3, #0
 1698 0036 25D0     		beq	.L133
1723:../freertos/tasks.c **** 				{
1724:../freertos/tasks.c **** 					traceTASK_RESUME( pxTCB );
1725:../freertos/tasks.c **** 
1726:../freertos/tasks.c **** 					/* As we are in a critical section we can access the ready
1727:../freertos/tasks.c **** 					lists even if the scheduler is suspended. */
1728:../freertos/tasks.c **** 					( void ) uxListRemove(  &( pxTCB->xStateListItem ) );
 1699              		.loc 1 1728 0
 1700 0038 FB68     		ldr	r3, [r7, #12]
 1701 003a 0433     		add	r3, r3, #4
 1702 003c 181C     		mov	r0, r3
 1703 003e FFF7FEFF 		bl	uxListRemove
1729:../freertos/tasks.c **** 					prvAddTaskToReadyList( pxTCB );
 1704              		.loc 1 1729 0
 1705 0042 FB68     		ldr	r3, [r7, #12]
 1706 0044 DA6A     		ldr	r2, [r3, #44]
 1707 0046 134B     		ldr	r3, .L135+4
 1708 0048 1B68     		ldr	r3, [r3]
 1709 004a 9A42     		cmp	r2, r3
 1710 004c 03D9     		bls	.L134
 1711              		.loc 1 1729 0 is_stmt 0 discriminator 1
 1712 004e FB68     		ldr	r3, [r7, #12]
 1713 0050 DA6A     		ldr	r2, [r3, #44]
 1714 0052 104B     		ldr	r3, .L135+4
 1715 0054 1A60     		str	r2, [r3]
 1716              	.L134:
 1717              		.loc 1 1729 0 discriminator 2
 1718 0056 FB68     		ldr	r3, [r7, #12]
 1719 0058 DA6A     		ldr	r2, [r3, #44]
 1720 005a 131C     		mov	r3, r2
 1721 005c 9B00     		lsl	r3, r3, #2
 1722 005e 9B18     		add	r3, r3, r2
 1723 0060 9B00     		lsl	r3, r3, #2
 1724 0062 0D4A     		ldr	r2, .L135+8
 1725 0064 9A18     		add	r2, r3, r2
 1726 0066 FB68     		ldr	r3, [r7, #12]
 1727 0068 0433     		add	r3, r3, #4
 1728 006a 101C     		mov	r0, r2
 1729 006c 191C     		mov	r1, r3
 1730 006e FFF7FEFF 		bl	vListInsertEnd
1730:../freertos/tasks.c **** 
1731:../freertos/tasks.c **** 					/* We may have just resumed a higher priority task. */
1732:../freertos/tasks.c **** 					if( pxTCB->uxPriority >= pxCurrentTCB->uxPriority )
 1731              		.loc 1 1732 0 is_stmt 1 discriminator 2
 1732 0072 FB68     		ldr	r3, [r7, #12]
 1733 0074 DA6A     		ldr	r2, [r3, #44]
 1734 0076 064B     		ldr	r3, .L135
 1735 0078 1B68     		ldr	r3, [r3]
 1736 007a DB6A     		ldr	r3, [r3, #44]
 1737 007c 9A42     		cmp	r2, r3
 1738 007e 01D3     		bcc	.L133
1733:../freertos/tasks.c **** 					{
1734:../freertos/tasks.c **** 						/* This yield may not cause the task just resumed to run,
1735:../freertos/tasks.c **** 						but will leave the lists in the correct state for the
1736:../freertos/tasks.c **** 						next yield. */
1737:../freertos/tasks.c **** 						taskYIELD_IF_USING_PREEMPTION();
 1739              		.loc 1 1737 0
 1740 0080 FFF7FEFF 		bl	vPortYield
 1741              	.L133:
1738:../freertos/tasks.c **** 					}
1739:../freertos/tasks.c **** 					else
1740:../freertos/tasks.c **** 					{
1741:../freertos/tasks.c **** 						mtCOVERAGE_TEST_MARKER();
1742:../freertos/tasks.c **** 					}
1743:../freertos/tasks.c **** 				}
1744:../freertos/tasks.c **** 				else
1745:../freertos/tasks.c **** 				{
1746:../freertos/tasks.c **** 					mtCOVERAGE_TEST_MARKER();
1747:../freertos/tasks.c **** 				}
1748:../freertos/tasks.c **** 			}
1749:../freertos/tasks.c **** 			taskEXIT_CRITICAL();
 1742              		.loc 1 1749 0 discriminator 2
 1743 0084 FFF7FEFF 		bl	vPortExitCritical
 1744              	.L129:
1750:../freertos/tasks.c **** 		}
1751:../freertos/tasks.c **** 		else
1752:../freertos/tasks.c **** 		{
1753:../freertos/tasks.c **** 			mtCOVERAGE_TEST_MARKER();
1754:../freertos/tasks.c **** 		}
1755:../freertos/tasks.c **** 	}
 1745              		.loc 1 1755 0
 1746 0088 BD46     		mov	sp, r7
 1747 008a 04B0     		add	sp, sp, #16
 1748              		@ sp needed
 1749 008c 80BD     		pop	{r7, pc}
 1750              	.L136:
 1751 008e C046     		.align	2
 1752              	.L135:
 1753 0090 00000000 		.word	pxCurrentTCB
 1754 0094 00000000 		.word	uxTopReadyPriority
 1755 0098 00000000 		.word	pxReadyTasksLists
 1756              		.cfi_endproc
 1757              	.LFE12:
 1759              		.section	.text.xTaskResumeFromISR,"ax",%progbits
 1760              		.align	2
 1761              		.global	xTaskResumeFromISR
 1762              		.code	16
 1763              		.thumb_func
 1765              	xTaskResumeFromISR:
 1766              	.LFB13:
1756:../freertos/tasks.c **** 
1757:../freertos/tasks.c **** #endif /* INCLUDE_vTaskSuspend */
1758:../freertos/tasks.c **** 
1759:../freertos/tasks.c **** /*-----------------------------------------------------------*/
1760:../freertos/tasks.c **** 
1761:../freertos/tasks.c **** #if ( ( INCLUDE_xTaskResumeFromISR == 1 ) && ( INCLUDE_vTaskSuspend == 1 ) )
1762:../freertos/tasks.c **** 
1763:../freertos/tasks.c **** 	BaseType_t xTaskResumeFromISR( TaskHandle_t xTaskToResume )
1764:../freertos/tasks.c **** 	{
 1767              		.loc 1 1764 0
 1768              		.cfi_startproc
 1769 0000 80B5     		push	{r7, lr}
 1770              		.cfi_def_cfa_offset 8
 1771              		.cfi_offset 7, -8
 1772              		.cfi_offset 14, -4
 1773 0002 86B0     		sub	sp, sp, #24
 1774              		.cfi_def_cfa_offset 32
 1775 0004 00AF     		add	r7, sp, #0
 1776              		.cfi_def_cfa_register 7
 1777 0006 7860     		str	r0, [r7, #4]
1765:../freertos/tasks.c **** 	BaseType_t xYieldRequired = pdFALSE;
 1778              		.loc 1 1765 0
 1779 0008 0023     		mov	r3, #0
 1780 000a 7B61     		str	r3, [r7, #20]
1766:../freertos/tasks.c **** 	TCB_t * const pxTCB = ( TCB_t * ) xTaskToResume;
 1781              		.loc 1 1766 0
 1782 000c 7B68     		ldr	r3, [r7, #4]
 1783 000e 3B61     		str	r3, [r7, #16]
1767:../freertos/tasks.c **** 	UBaseType_t uxSavedInterruptStatus;
1768:../freertos/tasks.c **** 
1769:../freertos/tasks.c **** 		configASSERT( xTaskToResume );
 1784              		.loc 1 1769 0
 1785 0010 7B68     		ldr	r3, [r7, #4]
 1786 0012 002B     		cmp	r3, #0
 1787 0014 01D1     		bne	.L138
 1788              		.loc 1 1769 0 is_stmt 0 discriminator 1
 1789              	@ 1769 "../freertos/tasks.c" 1
 1790 0016 72B6     		 cpsid i 
 1791              	@ 0 "" 2
 1792              		.code	16
 1793              	.L139:
 1794 0018 FEE7     		b	.L139
 1795              	.L138:
1770:../freertos/tasks.c **** 
1771:../freertos/tasks.c **** 		/* RTOS ports that support interrupt nesting have the concept of a
1772:../freertos/tasks.c **** 		maximum	system call (or maximum API call) interrupt priority.
1773:../freertos/tasks.c **** 		Interrupts that are	above the maximum system call priority are keep
1774:../freertos/tasks.c **** 		permanently enabled, even when the RTOS kernel is in a critical section,
1775:../freertos/tasks.c **** 		but cannot make any calls to FreeRTOS API functions.  If configASSERT()
1776:../freertos/tasks.c **** 		is defined in FreeRTOSConfig.h then
1777:../freertos/tasks.c **** 		portASSERT_IF_INTERRUPT_PRIORITY_INVALID() will result in an assertion
1778:../freertos/tasks.c **** 		failure if a FreeRTOS API function is called from an interrupt that has
1779:../freertos/tasks.c **** 		been assigned a priority above the configured maximum system call
1780:../freertos/tasks.c **** 		priority.  Only FreeRTOS functions that end in FromISR can be called
1781:../freertos/tasks.c **** 		from interrupts	that have been assigned a priority at or (logically)
1782:../freertos/tasks.c **** 		below the maximum system call interrupt priority.  FreeRTOS maintains a
1783:../freertos/tasks.c **** 		separate interrupt safe API to ensure interrupt entry is as fast and as
1784:../freertos/tasks.c **** 		simple as possible.  More information (albeit Cortex-M specific) is
1785:../freertos/tasks.c **** 		provided on the following link:
1786:../freertos/tasks.c **** 		http://www.freertos.org/RTOS-Cortex-M3-M4.html */
1787:../freertos/tasks.c **** 		portASSERT_IF_INTERRUPT_PRIORITY_INVALID();
1788:../freertos/tasks.c **** 
1789:../freertos/tasks.c **** 		uxSavedInterruptStatus = portSET_INTERRUPT_MASK_FROM_ISR();
 1796              		.loc 1 1789 0 is_stmt 1
 1797 001a FFF7FEFF 		bl	ulSetInterruptMaskFromISR
 1798 001e 031C     		mov	r3, r0
 1799 0020 FB60     		str	r3, [r7, #12]
1790:../freertos/tasks.c **** 		{
1791:../freertos/tasks.c **** 			if( prvTaskIsTaskSuspended( pxTCB ) != pdFALSE )
 1800              		.loc 1 1791 0
 1801 0022 3B69     		ldr	r3, [r7, #16]
 1802 0024 181C     		mov	r0, r3
 1803 0026 FFF7FEFF 		bl	prvTaskIsTaskSuspended
 1804 002a 031C     		mov	r3, r0
 1805 002c 002B     		cmp	r3, #0
 1806 002e 31D0     		beq	.L140
1792:../freertos/tasks.c **** 			{
1793:../freertos/tasks.c **** 				traceTASK_RESUME_FROM_ISR( pxTCB );
1794:../freertos/tasks.c **** 
1795:../freertos/tasks.c **** 				/* Check the ready lists can be accessed. */
1796:../freertos/tasks.c **** 				if( uxSchedulerSuspended == ( UBaseType_t ) pdFALSE )
 1807              		.loc 1 1796 0
 1808 0030 1D4B     		ldr	r3, .L146
 1809 0032 1B68     		ldr	r3, [r3]
 1810 0034 002B     		cmp	r3, #0
 1811 0036 26D1     		bne	.L141
1797:../freertos/tasks.c **** 				{
1798:../freertos/tasks.c **** 					/* Ready lists can be accessed so move the task from the
1799:../freertos/tasks.c **** 					suspended list to the ready list directly. */
1800:../freertos/tasks.c **** 					if( pxTCB->uxPriority >= pxCurrentTCB->uxPriority )
 1812              		.loc 1 1800 0
 1813 0038 3B69     		ldr	r3, [r7, #16]
 1814 003a DA6A     		ldr	r2, [r3, #44]
 1815 003c 1B4B     		ldr	r3, .L146+4
 1816 003e 1B68     		ldr	r3, [r3]
 1817 0040 DB6A     		ldr	r3, [r3, #44]
 1818 0042 9A42     		cmp	r2, r3
 1819 0044 01D3     		bcc	.L142
1801:../freertos/tasks.c **** 					{
1802:../freertos/tasks.c **** 						xYieldRequired = pdTRUE;
 1820              		.loc 1 1802 0
 1821 0046 0123     		mov	r3, #1
 1822 0048 7B61     		str	r3, [r7, #20]
 1823              	.L142:
1803:../freertos/tasks.c **** 					}
1804:../freertos/tasks.c **** 					else
1805:../freertos/tasks.c **** 					{
1806:../freertos/tasks.c **** 						mtCOVERAGE_TEST_MARKER();
1807:../freertos/tasks.c **** 					}
1808:../freertos/tasks.c **** 
1809:../freertos/tasks.c **** 					( void ) uxListRemove( &( pxTCB->xStateListItem ) );
 1824              		.loc 1 1809 0
 1825 004a 3B69     		ldr	r3, [r7, #16]
 1826 004c 0433     		add	r3, r3, #4
 1827 004e 181C     		mov	r0, r3
 1828 0050 FFF7FEFF 		bl	uxListRemove
1810:../freertos/tasks.c **** 					prvAddTaskToReadyList( pxTCB );
 1829              		.loc 1 1810 0
 1830 0054 3B69     		ldr	r3, [r7, #16]
 1831 0056 DA6A     		ldr	r2, [r3, #44]
 1832 0058 154B     		ldr	r3, .L146+8
 1833 005a 1B68     		ldr	r3, [r3]
 1834 005c 9A42     		cmp	r2, r3
 1835 005e 03D9     		bls	.L143
 1836              		.loc 1 1810 0 is_stmt 0 discriminator 1
 1837 0060 3B69     		ldr	r3, [r7, #16]
 1838 0062 DA6A     		ldr	r2, [r3, #44]
 1839 0064 124B     		ldr	r3, .L146+8
 1840 0066 1A60     		str	r2, [r3]
 1841              	.L143:
 1842              		.loc 1 1810 0 discriminator 2
 1843 0068 3B69     		ldr	r3, [r7, #16]
 1844 006a DA6A     		ldr	r2, [r3, #44]
 1845 006c 131C     		mov	r3, r2
 1846 006e 9B00     		lsl	r3, r3, #2
 1847 0070 9B18     		add	r3, r3, r2
 1848 0072 9B00     		lsl	r3, r3, #2
 1849 0074 0F4A     		ldr	r2, .L146+12
 1850 0076 9A18     		add	r2, r3, r2
 1851 0078 3B69     		ldr	r3, [r7, #16]
 1852 007a 0433     		add	r3, r3, #4
 1853 007c 101C     		mov	r0, r2
 1854 007e 191C     		mov	r1, r3
 1855 0080 FFF7FEFF 		bl	vListInsertEnd
 1856 0084 06E0     		b	.L140
 1857              	.L141:
1811:../freertos/tasks.c **** 				}
1812:../freertos/tasks.c **** 				else
1813:../freertos/tasks.c **** 				{
1814:../freertos/tasks.c **** 					/* The delayed or ready lists cannot be accessed so the task
1815:../freertos/tasks.c **** 					is held in the pending ready list until the scheduler is
1816:../freertos/tasks.c **** 					unsuspended. */
1817:../freertos/tasks.c **** 					vListInsertEnd( &( xPendingReadyList ), &( pxTCB->xEventListItem ) );
 1858              		.loc 1 1817 0 is_stmt 1
 1859 0086 3B69     		ldr	r3, [r7, #16]
 1860 0088 1833     		add	r3, r3, #24
 1861 008a 0B4A     		ldr	r2, .L146+16
 1862 008c 101C     		mov	r0, r2
 1863 008e 191C     		mov	r1, r3
 1864 0090 FFF7FEFF 		bl	vListInsertEnd
 1865              	.L140:
1818:../freertos/tasks.c **** 				}
1819:../freertos/tasks.c **** 			}
1820:../freertos/tasks.c **** 			else
1821:../freertos/tasks.c **** 			{
1822:../freertos/tasks.c **** 				mtCOVERAGE_TEST_MARKER();
1823:../freertos/tasks.c **** 			}
1824:../freertos/tasks.c **** 		}
1825:../freertos/tasks.c **** 		portCLEAR_INTERRUPT_MASK_FROM_ISR( uxSavedInterruptStatus );
 1866              		.loc 1 1825 0
 1867 0094 FB68     		ldr	r3, [r7, #12]
 1868 0096 181C     		mov	r0, r3
 1869 0098 FFF7FEFF 		bl	vClearInterruptMaskFromISR
1826:../freertos/tasks.c **** 
1827:../freertos/tasks.c **** 		return xYieldRequired;
 1870              		.loc 1 1827 0
 1871 009c 7B69     		ldr	r3, [r7, #20]
1828:../freertos/tasks.c **** 	}
 1872              		.loc 1 1828 0
 1873 009e 181C     		mov	r0, r3
 1874 00a0 BD46     		mov	sp, r7
 1875 00a2 06B0     		add	sp, sp, #24
 1876              		@ sp needed
 1877 00a4 80BD     		pop	{r7, pc}
 1878              	.L147:
 1879 00a6 C046     		.align	2
 1880              	.L146:
 1881 00a8 00000000 		.word	uxSchedulerSuspended
 1882 00ac 00000000 		.word	pxCurrentTCB
 1883 00b0 00000000 		.word	uxTopReadyPriority
 1884 00b4 00000000 		.word	pxReadyTasksLists
 1885 00b8 00000000 		.word	xPendingReadyList
 1886              		.cfi_endproc
 1887              	.LFE13:
 1889              		.section	.rodata
 1890              		.align	2
 1891              	.LC42:
 1892 0000 49444C45 		.ascii	"IDLE\000"
 1892      00
 1893 0005 000000   		.section	.text.vTaskStartScheduler,"ax",%progbits
 1894              		.align	2
 1895              		.global	vTaskStartScheduler
 1896              		.code	16
 1897              		.thumb_func
 1899              	vTaskStartScheduler:
 1900              	.LFB14:
1829:../freertos/tasks.c **** 
1830:../freertos/tasks.c **** #endif /* ( ( INCLUDE_xTaskResumeFromISR == 1 ) && ( INCLUDE_vTaskSuspend == 1 ) ) */
1831:../freertos/tasks.c **** /*-----------------------------------------------------------*/
1832:../freertos/tasks.c **** 
1833:../freertos/tasks.c **** void vTaskStartScheduler( void )
1834:../freertos/tasks.c **** {
 1901              		.loc 1 1834 0
 1902              		.cfi_startproc
 1903 0000 80B5     		push	{r7, lr}
 1904              		.cfi_def_cfa_offset 8
 1905              		.cfi_offset 7, -8
 1906              		.cfi_offset 14, -4
 1907 0002 84B0     		sub	sp, sp, #16
 1908              		.cfi_def_cfa_offset 24
 1909 0004 02AF     		add	r7, sp, #8
 1910              		.cfi_def_cfa 7, 16
1835:../freertos/tasks.c **** BaseType_t xReturn;
1836:../freertos/tasks.c **** 
1837:../freertos/tasks.c **** 	/* Add the idle task at the lowest priority. */
1838:../freertos/tasks.c **** 	#if( configSUPPORT_STATIC_ALLOCATION == 1 )
1839:../freertos/tasks.c **** 	{
1840:../freertos/tasks.c **** 		StaticTask_t *pxIdleTaskTCBBuffer = NULL;
1841:../freertos/tasks.c **** 		StackType_t *pxIdleTaskStackBuffer = NULL;
1842:../freertos/tasks.c **** 		uint32_t ulIdleTaskStackSize;
1843:../freertos/tasks.c **** 
1844:../freertos/tasks.c **** 		/* The Idle task is created using user provided RAM - obtain the
1845:../freertos/tasks.c **** 		address of the RAM then create the idle task. */
1846:../freertos/tasks.c **** 		vApplicationGetIdleTaskMemory( &pxIdleTaskTCBBuffer, &pxIdleTaskStackBuffer, &ulIdleTaskStackSize
1847:../freertos/tasks.c **** 		xIdleTaskHandle = xTaskCreateStatic(	prvIdleTask,
1848:../freertos/tasks.c **** 												"IDLE",
1849:../freertos/tasks.c **** 												ulIdleTaskStackSize,
1850:../freertos/tasks.c **** 												( void * ) NULL,
1851:../freertos/tasks.c **** 												( tskIDLE_PRIORITY | portPRIVILEGE_BIT ),
1852:../freertos/tasks.c **** 												pxIdleTaskStackBuffer,
1853:../freertos/tasks.c **** 												pxIdleTaskTCBBuffer ); /*lint !e961 MISRA exception, justified as it is not a redundant
1854:../freertos/tasks.c **** 
1855:../freertos/tasks.c **** 		if( xIdleTaskHandle != NULL )
1856:../freertos/tasks.c **** 		{
1857:../freertos/tasks.c **** 			xReturn = pdPASS;
1858:../freertos/tasks.c **** 		}
1859:../freertos/tasks.c **** 		else
1860:../freertos/tasks.c **** 		{
1861:../freertos/tasks.c **** 			xReturn = pdFAIL;
1862:../freertos/tasks.c **** 		}
1863:../freertos/tasks.c **** 	}
1864:../freertos/tasks.c **** 	#else
1865:../freertos/tasks.c **** 	{
1866:../freertos/tasks.c **** 		/* The Idle task is being created using dynamically allocated RAM. */
1867:../freertos/tasks.c **** 		xReturn = xTaskCreate(	prvIdleTask,
 1911              		.loc 1 1867 0
 1912 0006 174A     		ldr	r2, .L153
 1913 0008 174B     		ldr	r3, .L153+4
 1914 000a 0021     		mov	r1, #0
 1915 000c 0091     		str	r1, [sp]
 1916 000e 1749     		ldr	r1, .L153+8
 1917 0010 0191     		str	r1, [sp, #4]
 1918 0012 101C     		mov	r0, r2
 1919 0014 191C     		mov	r1, r3
 1920 0016 5A22     		mov	r2, #90
 1921 0018 0023     		mov	r3, #0
 1922 001a FFF7FEFF 		bl	xTaskCreate
 1923 001e 031C     		mov	r3, r0
 1924 0020 7B60     		str	r3, [r7, #4]
1868:../freertos/tasks.c **** 								"IDLE", configMINIMAL_STACK_SIZE,
1869:../freertos/tasks.c **** 								( void * ) NULL,
1870:../freertos/tasks.c **** 								( tskIDLE_PRIORITY | portPRIVILEGE_BIT ),
1871:../freertos/tasks.c **** 								&xIdleTaskHandle ); /*lint !e961 MISRA exception, justified as it is not a redundant explic
1872:../freertos/tasks.c **** 	}
1873:../freertos/tasks.c **** 	#endif /* configSUPPORT_STATIC_ALLOCATION */
1874:../freertos/tasks.c **** 
1875:../freertos/tasks.c **** 	#if ( configUSE_TIMERS == 1 )
1876:../freertos/tasks.c **** 	{
1877:../freertos/tasks.c **** 		if( xReturn == pdPASS )
 1925              		.loc 1 1877 0
 1926 0022 7B68     		ldr	r3, [r7, #4]
 1927 0024 012B     		cmp	r3, #1
 1928 0026 03D1     		bne	.L149
1878:../freertos/tasks.c **** 		{
1879:../freertos/tasks.c **** 			xReturn = xTimerCreateTimerTask();
 1929              		.loc 1 1879 0
 1930 0028 FFF7FEFF 		bl	xTimerCreateTimerTask
 1931 002c 031C     		mov	r3, r0
 1932 002e 7B60     		str	r3, [r7, #4]
 1933              	.L149:
1880:../freertos/tasks.c **** 		}
1881:../freertos/tasks.c **** 		else
1882:../freertos/tasks.c **** 		{
1883:../freertos/tasks.c **** 			mtCOVERAGE_TEST_MARKER();
1884:../freertos/tasks.c **** 		}
1885:../freertos/tasks.c **** 	}
1886:../freertos/tasks.c **** 	#endif /* configUSE_TIMERS */
1887:../freertos/tasks.c **** 
1888:../freertos/tasks.c **** 	if( xReturn == pdPASS )
 1934              		.loc 1 1888 0
 1935 0030 7B68     		ldr	r3, [r7, #4]
 1936 0032 012B     		cmp	r3, #1
 1937 0034 0DD1     		bne	.L150
1889:../freertos/tasks.c **** 	{
1890:../freertos/tasks.c **** 		/* Interrupts are turned off here, to ensure a tick does not occur
1891:../freertos/tasks.c **** 		before or during the call to xPortStartScheduler().  The stacks of
1892:../freertos/tasks.c **** 		the created tasks contain a status word with interrupts switched on
1893:../freertos/tasks.c **** 		so interrupts will automatically get re-enabled when the first task
1894:../freertos/tasks.c **** 		starts to run. */
1895:../freertos/tasks.c **** 		portDISABLE_INTERRUPTS();
 1938              		.loc 1 1895 0
 1939              	@ 1895 "../freertos/tasks.c" 1
 1940 0036 72B6     		 cpsid i 
 1941              	@ 0 "" 2
1896:../freertos/tasks.c **** 
1897:../freertos/tasks.c **** 		#if ( configUSE_NEWLIB_REENTRANT == 1 )
1898:../freertos/tasks.c **** 		{
1899:../freertos/tasks.c **** 			/* Switch Newlib's _impure_ptr variable to point to the _reent
1900:../freertos/tasks.c **** 			structure specific to the task that will run first. */
1901:../freertos/tasks.c **** 			_impure_ptr = &( pxCurrentTCB->xNewLib_reent );
1902:../freertos/tasks.c **** 		}
1903:../freertos/tasks.c **** 		#endif /* configUSE_NEWLIB_REENTRANT */
1904:../freertos/tasks.c **** 
1905:../freertos/tasks.c **** 		xNextTaskUnblockTime = portMAX_DELAY;
 1942              		.loc 1 1905 0
 1943              		.code	16
 1944 0038 0D4B     		ldr	r3, .L153+12
 1945 003a 0122     		mov	r2, #1
 1946 003c 5242     		neg	r2, r2
 1947 003e 1A60     		str	r2, [r3]
1906:../freertos/tasks.c **** 		xSchedulerRunning = pdTRUE;
 1948              		.loc 1 1906 0
 1949 0040 0C4B     		ldr	r3, .L153+16
 1950 0042 0122     		mov	r2, #1
 1951 0044 1A60     		str	r2, [r3]
1907:../freertos/tasks.c **** 		xTickCount = ( TickType_t ) 0U;
 1952              		.loc 1 1907 0
 1953 0046 0C4B     		ldr	r3, .L153+20
 1954 0048 0022     		mov	r2, #0
 1955 004a 1A60     		str	r2, [r3]
1908:../freertos/tasks.c **** 
1909:../freertos/tasks.c **** 		/* If configGENERATE_RUN_TIME_STATS is defined then the following
1910:../freertos/tasks.c **** 		macro must be defined to configure the timer/counter used to generate
1911:../freertos/tasks.c **** 		the run time counter time base. */
1912:../freertos/tasks.c **** 		portCONFIGURE_TIMER_FOR_RUN_TIME_STATS();
1913:../freertos/tasks.c **** 
1914:../freertos/tasks.c **** 		/* Setting up the timer tick is hardware specific and thus in the
1915:../freertos/tasks.c **** 		portable interface. */
1916:../freertos/tasks.c **** 		if( xPortStartScheduler() != pdFALSE )
 1956              		.loc 1 1916 0
 1957 004c FFF7FEFF 		bl	xPortStartScheduler
 1958 0050 04E0     		b	.L148
 1959              	.L150:
1917:../freertos/tasks.c **** 		{
1918:../freertos/tasks.c **** 			/* Should not reach here as if the scheduler is running the
1919:../freertos/tasks.c **** 			function will not return. */
1920:../freertos/tasks.c **** 		}
1921:../freertos/tasks.c **** 		else
1922:../freertos/tasks.c **** 		{
1923:../freertos/tasks.c **** 			/* Should only reach here if a task calls xTaskEndScheduler(). */
1924:../freertos/tasks.c **** 		}
1925:../freertos/tasks.c **** 	}
1926:../freertos/tasks.c **** 	else
1927:../freertos/tasks.c **** 	{
1928:../freertos/tasks.c **** 		/* This line will only be reached if the kernel could not be started,
1929:../freertos/tasks.c **** 		because there was not enough FreeRTOS heap to create the idle task
1930:../freertos/tasks.c **** 		or the timer task. */
1931:../freertos/tasks.c **** 		configASSERT( xReturn != errCOULD_NOT_ALLOCATE_REQUIRED_MEMORY );
 1960              		.loc 1 1931 0
 1961 0052 7B68     		ldr	r3, [r7, #4]
 1962 0054 0133     		add	r3, r3, #1
 1963 0056 01D1     		bne	.L148
 1964              		.loc 1 1931 0 is_stmt 0 discriminator 1
 1965              	@ 1931 "../freertos/tasks.c" 1
 1966 0058 72B6     		 cpsid i 
 1967              	@ 0 "" 2
 1968              		.code	16
 1969              	.L152:
 1970 005a FEE7     		b	.L152
 1971              	.L148:
1932:../freertos/tasks.c **** 	}
1933:../freertos/tasks.c **** 
1934:../freertos/tasks.c **** 	/* Prevent compiler warnings if INCLUDE_xTaskGetIdleTaskHandle is set to 0,
1935:../freertos/tasks.c **** 	meaning xIdleTaskHandle is not used anywhere else. */
1936:../freertos/tasks.c **** 	( void ) xIdleTaskHandle;
1937:../freertos/tasks.c **** }
 1972              		.loc 1 1937 0 is_stmt 1
 1973 005c BD46     		mov	sp, r7
 1974 005e 02B0     		add	sp, sp, #8
 1975              		@ sp needed
 1976 0060 80BD     		pop	{r7, pc}
 1977              	.L154:
 1978 0062 C046     		.align	2
 1979              	.L153:
 1980 0064 00000000 		.word	prvIdleTask
 1981 0068 00000000 		.word	.LC42
 1982 006c 00000000 		.word	xIdleTaskHandle
 1983 0070 00000000 		.word	xNextTaskUnblockTime
 1984 0074 00000000 		.word	xSchedulerRunning
 1985 0078 00000000 		.word	xTickCount
 1986              		.cfi_endproc
 1987              	.LFE14:
 1989              		.section	.text.vTaskEndScheduler,"ax",%progbits
 1990              		.align	2
 1991              		.global	vTaskEndScheduler
 1992              		.code	16
 1993              		.thumb_func
 1995              	vTaskEndScheduler:
 1996              	.LFB15:
1938:../freertos/tasks.c **** /*-----------------------------------------------------------*/
1939:../freertos/tasks.c **** 
1940:../freertos/tasks.c **** void vTaskEndScheduler( void )
1941:../freertos/tasks.c **** {
 1997              		.loc 1 1941 0
 1998              		.cfi_startproc
 1999 0000 80B5     		push	{r7, lr}
 2000              		.cfi_def_cfa_offset 8
 2001              		.cfi_offset 7, -8
 2002              		.cfi_offset 14, -4
 2003 0002 00AF     		add	r7, sp, #0
 2004              		.cfi_def_cfa_register 7
1942:../freertos/tasks.c **** 	/* Stop the scheduler interrupts and call the portable scheduler end
1943:../freertos/tasks.c **** 	routine so the original ISRs can be restored if necessary.  The port
1944:../freertos/tasks.c **** 	layer must ensure interrupts enable	bit is left in the correct state. */
1945:../freertos/tasks.c **** 	portDISABLE_INTERRUPTS();
 2005              		.loc 1 1945 0
 2006              	@ 1945 "../freertos/tasks.c" 1
 2007 0004 72B6     		 cpsid i 
 2008              	@ 0 "" 2
1946:../freertos/tasks.c **** 	xSchedulerRunning = pdFALSE;
 2009              		.loc 1 1946 0
 2010              		.code	16
 2011 0006 034B     		ldr	r3, .L156
 2012 0008 0022     		mov	r2, #0
 2013 000a 1A60     		str	r2, [r3]
1947:../freertos/tasks.c **** 	vPortEndScheduler();
 2014              		.loc 1 1947 0
 2015 000c FFF7FEFF 		bl	vPortEndScheduler
1948:../freertos/tasks.c **** }
 2016              		.loc 1 1948 0
 2017 0010 BD46     		mov	sp, r7
 2018              		@ sp needed
 2019 0012 80BD     		pop	{r7, pc}
 2020              	.L157:
 2021              		.align	2
 2022              	.L156:
 2023 0014 00000000 		.word	xSchedulerRunning
 2024              		.cfi_endproc
 2025              	.LFE15:
 2027              		.section	.text.vTaskSuspendAll,"ax",%progbits
 2028              		.align	2
 2029              		.global	vTaskSuspendAll
 2030              		.code	16
 2031              		.thumb_func
 2033              	vTaskSuspendAll:
 2034              	.LFB16:
1949:../freertos/tasks.c **** /*----------------------------------------------------------*/
1950:../freertos/tasks.c **** 
1951:../freertos/tasks.c **** void vTaskSuspendAll( void )
1952:../freertos/tasks.c **** {
 2035              		.loc 1 1952 0
 2036              		.cfi_startproc
 2037 0000 80B5     		push	{r7, lr}
 2038              		.cfi_def_cfa_offset 8
 2039              		.cfi_offset 7, -8
 2040              		.cfi_offset 14, -4
 2041 0002 00AF     		add	r7, sp, #0
 2042              		.cfi_def_cfa_register 7
1953:../freertos/tasks.c **** 	/* A critical section is not required as the variable is of type
1954:../freertos/tasks.c **** 	BaseType_t.  Please read Richard Barry's reply in the following link to a
1955:../freertos/tasks.c **** 	post in the FreeRTOS support forum before reporting this as a bug! -
1956:../freertos/tasks.c **** 	http://goo.gl/wu4acr */
1957:../freertos/tasks.c **** 	++uxSchedulerSuspended;
 2043              		.loc 1 1957 0
 2044 0004 034B     		ldr	r3, .L159
 2045 0006 1B68     		ldr	r3, [r3]
 2046 0008 5A1C     		add	r2, r3, #1
 2047 000a 024B     		ldr	r3, .L159
 2048 000c 1A60     		str	r2, [r3]
1958:../freertos/tasks.c **** }
 2049              		.loc 1 1958 0
 2050 000e BD46     		mov	sp, r7
 2051              		@ sp needed
 2052 0010 80BD     		pop	{r7, pc}
 2053              	.L160:
 2054 0012 C046     		.align	2
 2055              	.L159:
 2056 0014 00000000 		.word	uxSchedulerSuspended
 2057              		.cfi_endproc
 2058              	.LFE16:
 2060              		.section	.text.xTaskResumeAll,"ax",%progbits
 2061              		.align	2
 2062              		.global	xTaskResumeAll
 2063              		.code	16
 2064              		.thumb_func
 2066              	xTaskResumeAll:
 2067              	.LFB17:
1959:../freertos/tasks.c **** /*----------------------------------------------------------*/
1960:../freertos/tasks.c **** 
1961:../freertos/tasks.c **** #if ( configUSE_TICKLESS_IDLE != 0 )
1962:../freertos/tasks.c **** 
1963:../freertos/tasks.c **** 	static TickType_t prvGetExpectedIdleTime( void )
1964:../freertos/tasks.c **** 	{
1965:../freertos/tasks.c **** 	TickType_t xReturn;
1966:../freertos/tasks.c **** 	UBaseType_t uxHigherPriorityReadyTasks = pdFALSE;
1967:../freertos/tasks.c **** 
1968:../freertos/tasks.c **** 		/* uxHigherPriorityReadyTasks takes care of the case where
1969:../freertos/tasks.c **** 		configUSE_PREEMPTION is 0, so there may be tasks above the idle priority
1970:../freertos/tasks.c **** 		task that are in the Ready state, even though the idle task is
1971:../freertos/tasks.c **** 		running. */
1972:../freertos/tasks.c **** 		#if( configUSE_PORT_OPTIMISED_TASK_SELECTION == 0 )
1973:../freertos/tasks.c **** 		{
1974:../freertos/tasks.c **** 			if( uxTopReadyPriority > tskIDLE_PRIORITY )
1975:../freertos/tasks.c **** 			{
1976:../freertos/tasks.c **** 				uxHigherPriorityReadyTasks = pdTRUE;
1977:../freertos/tasks.c **** 			}
1978:../freertos/tasks.c **** 		}
1979:../freertos/tasks.c **** 		#else
1980:../freertos/tasks.c **** 		{
1981:../freertos/tasks.c **** 			const UBaseType_t uxLeastSignificantBit = ( UBaseType_t ) 0x01;
1982:../freertos/tasks.c **** 
1983:../freertos/tasks.c **** 			/* When port optimised task selection is used the uxTopReadyPriority
1984:../freertos/tasks.c **** 			variable is used as a bit map.  If bits other than the least
1985:../freertos/tasks.c **** 			significant bit are set then there are tasks that have a priority
1986:../freertos/tasks.c **** 			above the idle priority that are in the Ready state.  This takes
1987:../freertos/tasks.c **** 			care of the case where the co-operative scheduler is in use. */
1988:../freertos/tasks.c **** 			if( uxTopReadyPriority > uxLeastSignificantBit )
1989:../freertos/tasks.c **** 			{
1990:../freertos/tasks.c **** 				uxHigherPriorityReadyTasks = pdTRUE;
1991:../freertos/tasks.c **** 			}
1992:../freertos/tasks.c **** 		}
1993:../freertos/tasks.c **** 		#endif
1994:../freertos/tasks.c **** 
1995:../freertos/tasks.c **** 		if( pxCurrentTCB->uxPriority > tskIDLE_PRIORITY )
1996:../freertos/tasks.c **** 		{
1997:../freertos/tasks.c **** 			xReturn = 0;
1998:../freertos/tasks.c **** 		}
1999:../freertos/tasks.c **** 		else if( listCURRENT_LIST_LENGTH( &( pxReadyTasksLists[ tskIDLE_PRIORITY ] ) ) > 1 )
2000:../freertos/tasks.c **** 		{
2001:../freertos/tasks.c **** 			/* There are other idle priority tasks in the ready state.  If
2002:../freertos/tasks.c **** 			time slicing is used then the very next tick interrupt must be
2003:../freertos/tasks.c **** 			processed. */
2004:../freertos/tasks.c **** 			xReturn = 0;
2005:../freertos/tasks.c **** 		}
2006:../freertos/tasks.c **** 		else if( uxHigherPriorityReadyTasks != pdFALSE )
2007:../freertos/tasks.c **** 		{
2008:../freertos/tasks.c **** 			/* There are tasks in the Ready state that have a priority above the
2009:../freertos/tasks.c **** 			idle priority.  This path can only be reached if
2010:../freertos/tasks.c **** 			configUSE_PREEMPTION is 0. */
2011:../freertos/tasks.c **** 			xReturn = 0;
2012:../freertos/tasks.c **** 		}
2013:../freertos/tasks.c **** 		else
2014:../freertos/tasks.c **** 		{
2015:../freertos/tasks.c **** 			xReturn = xNextTaskUnblockTime - xTickCount;
2016:../freertos/tasks.c **** 		}
2017:../freertos/tasks.c **** 
2018:../freertos/tasks.c **** 		return xReturn;
2019:../freertos/tasks.c **** 	}
2020:../freertos/tasks.c **** 
2021:../freertos/tasks.c **** #endif /* configUSE_TICKLESS_IDLE */
2022:../freertos/tasks.c **** /*----------------------------------------------------------*/
2023:../freertos/tasks.c **** 
2024:../freertos/tasks.c **** BaseType_t xTaskResumeAll( void )
2025:../freertos/tasks.c **** {
 2068              		.loc 1 2025 0
 2069              		.cfi_startproc
 2070 0000 80B5     		push	{r7, lr}
 2071              		.cfi_def_cfa_offset 8
 2072              		.cfi_offset 7, -8
 2073              		.cfi_offset 14, -4
 2074 0002 84B0     		sub	sp, sp, #16
 2075              		.cfi_def_cfa_offset 24
 2076 0004 00AF     		add	r7, sp, #0
 2077              		.cfi_def_cfa_register 7
2026:../freertos/tasks.c **** TCB_t *pxTCB = NULL;
 2078              		.loc 1 2026 0
 2079 0006 0023     		mov	r3, #0
 2080 0008 FB60     		str	r3, [r7, #12]
2027:../freertos/tasks.c **** BaseType_t xAlreadyYielded = pdFALSE;
 2081              		.loc 1 2027 0
 2082 000a 0023     		mov	r3, #0
 2083 000c BB60     		str	r3, [r7, #8]
2028:../freertos/tasks.c **** 
2029:../freertos/tasks.c **** 	/* If uxSchedulerSuspended is zero then this function does not match a
2030:../freertos/tasks.c **** 	previous call to vTaskSuspendAll(). */
2031:../freertos/tasks.c **** 	configASSERT( uxSchedulerSuspended );
 2084              		.loc 1 2031 0
 2085 000e 3A4B     		ldr	r3, .L173
 2086 0010 1B68     		ldr	r3, [r3]
 2087 0012 002B     		cmp	r3, #0
 2088 0014 01D1     		bne	.L162
 2089              		.loc 1 2031 0 is_stmt 0 discriminator 1
 2090              	@ 2031 "../freertos/tasks.c" 1
 2091 0016 72B6     		 cpsid i 
 2092              	@ 0 "" 2
 2093              		.code	16
 2094              	.L163:
 2095 0018 FEE7     		b	.L163
 2096              	.L162:
2032:../freertos/tasks.c **** 
2033:../freertos/tasks.c **** 	/* It is possible that an ISR caused a task to be removed from an event
2034:../freertos/tasks.c **** 	list while the scheduler was suspended.  If this was the case then the
2035:../freertos/tasks.c **** 	removed task will have been added to the xPendingReadyList.  Once the
2036:../freertos/tasks.c **** 	scheduler has been resumed it is safe to move all the pending ready
2037:../freertos/tasks.c **** 	tasks from this list into their appropriate ready list. */
2038:../freertos/tasks.c **** 	taskENTER_CRITICAL();
 2097              		.loc 1 2038 0 is_stmt 1
 2098 001a FFF7FEFF 		bl	vPortEnterCritical
2039:../freertos/tasks.c **** 	{
2040:../freertos/tasks.c **** 		--uxSchedulerSuspended;
 2099              		.loc 1 2040 0
 2100 001e 364B     		ldr	r3, .L173
 2101 0020 1B68     		ldr	r3, [r3]
 2102 0022 5A1E     		sub	r2, r3, #1
 2103 0024 344B     		ldr	r3, .L173
 2104 0026 1A60     		str	r2, [r3]
2041:../freertos/tasks.c **** 
2042:../freertos/tasks.c **** 		if( uxSchedulerSuspended == ( UBaseType_t ) pdFALSE )
 2105              		.loc 1 2042 0
 2106 0028 334B     		ldr	r3, .L173
 2107 002a 1B68     		ldr	r3, [r3]
 2108 002c 002B     		cmp	r3, #0
 2109 002e 5CD1     		bne	.L164
2043:../freertos/tasks.c **** 		{
2044:../freertos/tasks.c **** 			if( uxCurrentNumberOfTasks > ( UBaseType_t ) 0U )
 2110              		.loc 1 2044 0
 2111 0030 324B     		ldr	r3, .L173+4
 2112 0032 1B68     		ldr	r3, [r3]
 2113 0034 002B     		cmp	r3, #0
 2114 0036 58D0     		beq	.L164
2045:../freertos/tasks.c **** 			{
2046:../freertos/tasks.c **** 				/* Move any readied tasks from the pending list into the
2047:../freertos/tasks.c **** 				appropriate ready list. */
2048:../freertos/tasks.c **** 				while( listLIST_IS_EMPTY( &xPendingReadyList ) == pdFALSE )
 2115              		.loc 1 2048 0
 2116 0038 2FE0     		b	.L165
 2117              	.L167:
2049:../freertos/tasks.c **** 				{
2050:../freertos/tasks.c **** 					pxTCB = ( TCB_t * ) listGET_OWNER_OF_HEAD_ENTRY( ( &xPendingReadyList ) );
 2118              		.loc 1 2050 0
 2119 003a 314B     		ldr	r3, .L173+8
 2120 003c DB68     		ldr	r3, [r3, #12]
 2121 003e DB68     		ldr	r3, [r3, #12]
 2122 0040 FB60     		str	r3, [r7, #12]
2051:../freertos/tasks.c **** 					( void ) uxListRemove( &( pxTCB->xEventListItem ) );
 2123              		.loc 1 2051 0
 2124 0042 FB68     		ldr	r3, [r7, #12]
 2125 0044 1833     		add	r3, r3, #24
 2126 0046 181C     		mov	r0, r3
 2127 0048 FFF7FEFF 		bl	uxListRemove
2052:../freertos/tasks.c **** 					( void ) uxListRemove( &( pxTCB->xStateListItem ) );
 2128              		.loc 1 2052 0
 2129 004c FB68     		ldr	r3, [r7, #12]
 2130 004e 0433     		add	r3, r3, #4
 2131 0050 181C     		mov	r0, r3
 2132 0052 FFF7FEFF 		bl	uxListRemove
2053:../freertos/tasks.c **** 					prvAddTaskToReadyList( pxTCB );
 2133              		.loc 1 2053 0
 2134 0056 FB68     		ldr	r3, [r7, #12]
 2135 0058 DA6A     		ldr	r2, [r3, #44]
 2136 005a 2A4B     		ldr	r3, .L173+12
 2137 005c 1B68     		ldr	r3, [r3]
 2138 005e 9A42     		cmp	r2, r3
 2139 0060 03D9     		bls	.L166
 2140              		.loc 1 2053 0 is_stmt 0 discriminator 1
 2141 0062 FB68     		ldr	r3, [r7, #12]
 2142 0064 DA6A     		ldr	r2, [r3, #44]
 2143 0066 274B     		ldr	r3, .L173+12
 2144 0068 1A60     		str	r2, [r3]
 2145              	.L166:
 2146              		.loc 1 2053 0 discriminator 2
 2147 006a FB68     		ldr	r3, [r7, #12]
 2148 006c DA6A     		ldr	r2, [r3, #44]
 2149 006e 131C     		mov	r3, r2
 2150 0070 9B00     		lsl	r3, r3, #2
 2151 0072 9B18     		add	r3, r3, r2
 2152 0074 9B00     		lsl	r3, r3, #2
 2153 0076 244A     		ldr	r2, .L173+16
 2154 0078 9A18     		add	r2, r3, r2
 2155 007a FB68     		ldr	r3, [r7, #12]
 2156 007c 0433     		add	r3, r3, #4
 2157 007e 101C     		mov	r0, r2
 2158 0080 191C     		mov	r1, r3
 2159 0082 FFF7FEFF 		bl	vListInsertEnd
2054:../freertos/tasks.c **** 
2055:../freertos/tasks.c **** 					/* If the moved task has a priority higher than the current
2056:../freertos/tasks.c **** 					task then a yield must be performed. */
2057:../freertos/tasks.c **** 					if( pxTCB->uxPriority >= pxCurrentTCB->uxPriority )
 2160              		.loc 1 2057 0 is_stmt 1 discriminator 2
 2161 0086 FB68     		ldr	r3, [r7, #12]
 2162 0088 DA6A     		ldr	r2, [r3, #44]
 2163 008a 204B     		ldr	r3, .L173+20
 2164 008c 1B68     		ldr	r3, [r3]
 2165 008e DB6A     		ldr	r3, [r3, #44]
 2166 0090 9A42     		cmp	r2, r3
 2167 0092 02D3     		bcc	.L165
2058:../freertos/tasks.c **** 					{
2059:../freertos/tasks.c **** 						xYieldPending = pdTRUE;
 2168              		.loc 1 2059 0
 2169 0094 1E4B     		ldr	r3, .L173+24
 2170 0096 0122     		mov	r2, #1
 2171 0098 1A60     		str	r2, [r3]
 2172              	.L165:
2048:../freertos/tasks.c **** 				while( listLIST_IS_EMPTY( &xPendingReadyList ) == pdFALSE )
 2173              		.loc 1 2048 0 discriminator 1
 2174 009a 194B     		ldr	r3, .L173+8
 2175 009c 1B68     		ldr	r3, [r3]
 2176 009e 002B     		cmp	r3, #0
 2177 00a0 CBD1     		bne	.L167
2060:../freertos/tasks.c **** 					}
2061:../freertos/tasks.c **** 					else
2062:../freertos/tasks.c **** 					{
2063:../freertos/tasks.c **** 						mtCOVERAGE_TEST_MARKER();
2064:../freertos/tasks.c **** 					}
2065:../freertos/tasks.c **** 				}
2066:../freertos/tasks.c **** 
2067:../freertos/tasks.c **** 				if( pxTCB != NULL )
 2178              		.loc 1 2067 0
 2179 00a2 FB68     		ldr	r3, [r7, #12]
 2180 00a4 002B     		cmp	r3, #0
 2181 00a6 01D0     		beq	.L168
2068:../freertos/tasks.c **** 				{
2069:../freertos/tasks.c **** 					/* A task was unblocked while the scheduler was suspended,
2070:../freertos/tasks.c **** 					which may have prevented the next unblock time from being
2071:../freertos/tasks.c **** 					re-calculated, in which case re-calculate it now.  Mainly
2072:../freertos/tasks.c **** 					important for low power tickless implementations, where
2073:../freertos/tasks.c **** 					this can prevent an unnecessary exit from low power
2074:../freertos/tasks.c **** 					state. */
2075:../freertos/tasks.c **** 					prvResetNextTaskUnblockTime();
 2182              		.loc 1 2075 0
 2183 00a8 FFF7FEFF 		bl	prvResetNextTaskUnblockTime
 2184              	.L168:
 2185              	.LBB4:
2076:../freertos/tasks.c **** 				}
2077:../freertos/tasks.c **** 
2078:../freertos/tasks.c **** 				/* If any ticks occurred while the scheduler was suspended then
2079:../freertos/tasks.c **** 				they should be processed now.  This ensures the tick count does
2080:../freertos/tasks.c **** 				not	slip, and that any delayed tasks are resumed at the correct
2081:../freertos/tasks.c **** 				time. */
2082:../freertos/tasks.c **** 				{
2083:../freertos/tasks.c **** 					UBaseType_t uxPendedCounts = uxPendedTicks; /* Non-volatile copy. */
 2186              		.loc 1 2083 0
 2187 00ac 194B     		ldr	r3, .L173+28
 2188 00ae 1B68     		ldr	r3, [r3]
 2189 00b0 7B60     		str	r3, [r7, #4]
2084:../freertos/tasks.c **** 
2085:../freertos/tasks.c **** 					if( uxPendedCounts > ( UBaseType_t ) 0U )
 2190              		.loc 1 2085 0
 2191 00b2 7B68     		ldr	r3, [r7, #4]
 2192 00b4 002B     		cmp	r3, #0
 2193 00b6 10D0     		beq	.L169
 2194              	.L171:
2086:../freertos/tasks.c **** 					{
2087:../freertos/tasks.c **** 						do
2088:../freertos/tasks.c **** 						{
2089:../freertos/tasks.c **** 							if( xTaskIncrementTick() != pdFALSE )
 2195              		.loc 1 2089 0
 2196 00b8 FFF7FEFF 		bl	xTaskIncrementTick
 2197 00bc 031C     		mov	r3, r0
 2198 00be 002B     		cmp	r3, #0
 2199 00c0 02D0     		beq	.L170
2090:../freertos/tasks.c **** 							{
2091:../freertos/tasks.c **** 								xYieldPending = pdTRUE;
 2200              		.loc 1 2091 0
 2201 00c2 134B     		ldr	r3, .L173+24
 2202 00c4 0122     		mov	r2, #1
 2203 00c6 1A60     		str	r2, [r3]
 2204              	.L170:
2092:../freertos/tasks.c **** 							}
2093:../freertos/tasks.c **** 							else
2094:../freertos/tasks.c **** 							{
2095:../freertos/tasks.c **** 								mtCOVERAGE_TEST_MARKER();
2096:../freertos/tasks.c **** 							}
2097:../freertos/tasks.c **** 							--uxPendedCounts;
 2205              		.loc 1 2097 0
 2206 00c8 7B68     		ldr	r3, [r7, #4]
 2207 00ca 013B     		sub	r3, r3, #1
 2208 00cc 7B60     		str	r3, [r7, #4]
2098:../freertos/tasks.c **** 						} while( uxPendedCounts > ( UBaseType_t ) 0U );
 2209              		.loc 1 2098 0
 2210 00ce 7B68     		ldr	r3, [r7, #4]
 2211 00d0 002B     		cmp	r3, #0
 2212 00d2 F1D1     		bne	.L171
2099:../freertos/tasks.c **** 
2100:../freertos/tasks.c **** 						uxPendedTicks = 0;
 2213              		.loc 1 2100 0
 2214 00d4 0F4B     		ldr	r3, .L173+28
 2215 00d6 0022     		mov	r2, #0
 2216 00d8 1A60     		str	r2, [r3]
 2217              	.L169:
 2218              	.LBE4:
2101:../freertos/tasks.c **** 					}
2102:../freertos/tasks.c **** 					else
2103:../freertos/tasks.c **** 					{
2104:../freertos/tasks.c **** 						mtCOVERAGE_TEST_MARKER();
2105:../freertos/tasks.c **** 					}
2106:../freertos/tasks.c **** 				}
2107:../freertos/tasks.c **** 
2108:../freertos/tasks.c **** 				if( xYieldPending != pdFALSE )
 2219              		.loc 1 2108 0
 2220 00da 0D4B     		ldr	r3, .L173+24
 2221 00dc 1B68     		ldr	r3, [r3]
 2222 00de 002B     		cmp	r3, #0
 2223 00e0 03D0     		beq	.L164
2109:../freertos/tasks.c **** 				{
2110:../freertos/tasks.c **** 					#if( configUSE_PREEMPTION != 0 )
2111:../freertos/tasks.c **** 					{
2112:../freertos/tasks.c **** 						xAlreadyYielded = pdTRUE;
 2224              		.loc 1 2112 0
 2225 00e2 0123     		mov	r3, #1
 2226 00e4 BB60     		str	r3, [r7, #8]
2113:../freertos/tasks.c **** 					}
2114:../freertos/tasks.c **** 					#endif
2115:../freertos/tasks.c **** 					taskYIELD_IF_USING_PREEMPTION();
 2227              		.loc 1 2115 0
 2228 00e6 FFF7FEFF 		bl	vPortYield
 2229              	.L164:
2116:../freertos/tasks.c **** 				}
2117:../freertos/tasks.c **** 				else
2118:../freertos/tasks.c **** 				{
2119:../freertos/tasks.c **** 					mtCOVERAGE_TEST_MARKER();
2120:../freertos/tasks.c **** 				}
2121:../freertos/tasks.c **** 			}
2122:../freertos/tasks.c **** 		}
2123:../freertos/tasks.c **** 		else
2124:../freertos/tasks.c **** 		{
2125:../freertos/tasks.c **** 			mtCOVERAGE_TEST_MARKER();
2126:../freertos/tasks.c **** 		}
2127:../freertos/tasks.c **** 	}
2128:../freertos/tasks.c **** 	taskEXIT_CRITICAL();
 2230              		.loc 1 2128 0
 2231 00ea FFF7FEFF 		bl	vPortExitCritical
2129:../freertos/tasks.c **** 
2130:../freertos/tasks.c **** 	return xAlreadyYielded;
 2232              		.loc 1 2130 0
 2233 00ee BB68     		ldr	r3, [r7, #8]
2131:../freertos/tasks.c **** }
 2234              		.loc 1 2131 0
 2235 00f0 181C     		mov	r0, r3
 2236 00f2 BD46     		mov	sp, r7
 2237 00f4 04B0     		add	sp, sp, #16
 2238              		@ sp needed
 2239 00f6 80BD     		pop	{r7, pc}
 2240              	.L174:
 2241              		.align	2
 2242              	.L173:
 2243 00f8 00000000 		.word	uxSchedulerSuspended
 2244 00fc 00000000 		.word	uxCurrentNumberOfTasks
 2245 0100 00000000 		.word	xPendingReadyList
 2246 0104 00000000 		.word	uxTopReadyPriority
 2247 0108 00000000 		.word	pxReadyTasksLists
 2248 010c 00000000 		.word	pxCurrentTCB
 2249 0110 00000000 		.word	xYieldPending
 2250 0114 00000000 		.word	uxPendedTicks
 2251              		.cfi_endproc
 2252              	.LFE17:
 2254              		.section	.text.xTaskGetTickCount,"ax",%progbits
 2255              		.align	2
 2256              		.global	xTaskGetTickCount
 2257              		.code	16
 2258              		.thumb_func
 2260              	xTaskGetTickCount:
 2261              	.LFB18:
2132:../freertos/tasks.c **** /*-----------------------------------------------------------*/
2133:../freertos/tasks.c **** 
2134:../freertos/tasks.c **** TickType_t xTaskGetTickCount( void )
2135:../freertos/tasks.c **** {
 2262              		.loc 1 2135 0
 2263              		.cfi_startproc
 2264 0000 80B5     		push	{r7, lr}
 2265              		.cfi_def_cfa_offset 8
 2266              		.cfi_offset 7, -8
 2267              		.cfi_offset 14, -4
 2268 0002 82B0     		sub	sp, sp, #8
 2269              		.cfi_def_cfa_offset 16
 2270 0004 00AF     		add	r7, sp, #0
 2271              		.cfi_def_cfa_register 7
2136:../freertos/tasks.c **** TickType_t xTicks;
2137:../freertos/tasks.c **** 
2138:../freertos/tasks.c **** 	/* Critical section required if running on a 16 bit processor. */
2139:../freertos/tasks.c **** 	portTICK_TYPE_ENTER_CRITICAL();
2140:../freertos/tasks.c **** 	{
2141:../freertos/tasks.c **** 		xTicks = xTickCount;
 2272              		.loc 1 2141 0
 2273 0006 044B     		ldr	r3, .L177
 2274 0008 1B68     		ldr	r3, [r3]
 2275 000a 7B60     		str	r3, [r7, #4]
2142:../freertos/tasks.c **** 	}
2143:../freertos/tasks.c **** 	portTICK_TYPE_EXIT_CRITICAL();
2144:../freertos/tasks.c **** 
2145:../freertos/tasks.c **** 	return xTicks;
 2276              		.loc 1 2145 0
 2277 000c 7B68     		ldr	r3, [r7, #4]
2146:../freertos/tasks.c **** }
 2278              		.loc 1 2146 0
 2279 000e 181C     		mov	r0, r3
 2280 0010 BD46     		mov	sp, r7
 2281 0012 02B0     		add	sp, sp, #8
 2282              		@ sp needed
 2283 0014 80BD     		pop	{r7, pc}
 2284              	.L178:
 2285 0016 C046     		.align	2
 2286              	.L177:
 2287 0018 00000000 		.word	xTickCount
 2288              		.cfi_endproc
 2289              	.LFE18:
 2291              		.section	.text.xTaskGetTickCountFromISR,"ax",%progbits
 2292              		.align	2
 2293              		.global	xTaskGetTickCountFromISR
 2294              		.code	16
 2295              		.thumb_func
 2297              	xTaskGetTickCountFromISR:
 2298              	.LFB19:
2147:../freertos/tasks.c **** /*-----------------------------------------------------------*/
2148:../freertos/tasks.c **** 
2149:../freertos/tasks.c **** TickType_t xTaskGetTickCountFromISR( void )
2150:../freertos/tasks.c **** {
 2299              		.loc 1 2150 0
 2300              		.cfi_startproc
 2301 0000 80B5     		push	{r7, lr}
 2302              		.cfi_def_cfa_offset 8
 2303              		.cfi_offset 7, -8
 2304              		.cfi_offset 14, -4
 2305 0002 82B0     		sub	sp, sp, #8
 2306              		.cfi_def_cfa_offset 16
 2307 0004 00AF     		add	r7, sp, #0
 2308              		.cfi_def_cfa_register 7
2151:../freertos/tasks.c **** TickType_t xReturn;
2152:../freertos/tasks.c **** UBaseType_t uxSavedInterruptStatus;
2153:../freertos/tasks.c **** 
2154:../freertos/tasks.c **** 	/* RTOS ports that support interrupt nesting have the concept of a maximum
2155:../freertos/tasks.c **** 	system call (or maximum API call) interrupt priority.  Interrupts that are
2156:../freertos/tasks.c **** 	above the maximum system call priority are kept permanently enabled, even
2157:../freertos/tasks.c **** 	when the RTOS kernel is in a critical section, but cannot make any calls to
2158:../freertos/tasks.c **** 	FreeRTOS API functions.  If configASSERT() is defined in FreeRTOSConfig.h
2159:../freertos/tasks.c **** 	then portASSERT_IF_INTERRUPT_PRIORITY_INVALID() will result in an assertion
2160:../freertos/tasks.c **** 	failure if a FreeRTOS API function is called from an interrupt that has been
2161:../freertos/tasks.c **** 	assigned a priority above the configured maximum system call priority.
2162:../freertos/tasks.c **** 	Only FreeRTOS functions that end in FromISR can be called from interrupts
2163:../freertos/tasks.c **** 	that have been assigned a priority at or (logically) below the maximum
2164:../freertos/tasks.c **** 	system call	interrupt priority.  FreeRTOS maintains a separate interrupt
2165:../freertos/tasks.c **** 	safe API to ensure interrupt entry is as fast and as simple as possible.
2166:../freertos/tasks.c **** 	More information (albeit Cortex-M specific) is provided on the following
2167:../freertos/tasks.c **** 	link: http://www.freertos.org/RTOS-Cortex-M3-M4.html */
2168:../freertos/tasks.c **** 	portASSERT_IF_INTERRUPT_PRIORITY_INVALID();
2169:../freertos/tasks.c **** 
2170:../freertos/tasks.c **** 	uxSavedInterruptStatus = portTICK_TYPE_SET_INTERRUPT_MASK_FROM_ISR();
 2309              		.loc 1 2170 0
 2310 0006 0023     		mov	r3, #0
 2311 0008 7B60     		str	r3, [r7, #4]
2171:../freertos/tasks.c **** 	{
2172:../freertos/tasks.c **** 		xReturn = xTickCount;
 2312              		.loc 1 2172 0
 2313 000a 044B     		ldr	r3, .L181
 2314 000c 1B68     		ldr	r3, [r3]
 2315 000e 3B60     		str	r3, [r7]
2173:../freertos/tasks.c **** 	}
2174:../freertos/tasks.c **** 	portTICK_TYPE_CLEAR_INTERRUPT_MASK_FROM_ISR( uxSavedInterruptStatus );
2175:../freertos/tasks.c **** 
2176:../freertos/tasks.c **** 	return xReturn;
 2316              		.loc 1 2176 0
 2317 0010 3B68     		ldr	r3, [r7]
2177:../freertos/tasks.c **** }
 2318              		.loc 1 2177 0
 2319 0012 181C     		mov	r0, r3
 2320 0014 BD46     		mov	sp, r7
 2321 0016 02B0     		add	sp, sp, #8
 2322              		@ sp needed
 2323 0018 80BD     		pop	{r7, pc}
 2324              	.L182:
 2325 001a C046     		.align	2
 2326              	.L181:
 2327 001c 00000000 		.word	xTickCount
 2328              		.cfi_endproc
 2329              	.LFE19:
 2331              		.section	.text.uxTaskGetNumberOfTasks,"ax",%progbits
 2332              		.align	2
 2333              		.global	uxTaskGetNumberOfTasks
 2334              		.code	16
 2335              		.thumb_func
 2337              	uxTaskGetNumberOfTasks:
 2338              	.LFB20:
2178:../freertos/tasks.c **** /*-----------------------------------------------------------*/
2179:../freertos/tasks.c **** 
2180:../freertos/tasks.c **** UBaseType_t uxTaskGetNumberOfTasks( void )
2181:../freertos/tasks.c **** {
 2339              		.loc 1 2181 0
 2340              		.cfi_startproc
 2341 0000 80B5     		push	{r7, lr}
 2342              		.cfi_def_cfa_offset 8
 2343              		.cfi_offset 7, -8
 2344              		.cfi_offset 14, -4
 2345 0002 00AF     		add	r7, sp, #0
 2346              		.cfi_def_cfa_register 7
2182:../freertos/tasks.c **** 	/* A critical section is not required because the variables are of type
2183:../freertos/tasks.c **** 	BaseType_t. */
2184:../freertos/tasks.c **** 	return uxCurrentNumberOfTasks;
 2347              		.loc 1 2184 0
 2348 0004 024B     		ldr	r3, .L185
 2349 0006 1B68     		ldr	r3, [r3]
2185:../freertos/tasks.c **** }
 2350              		.loc 1 2185 0
 2351 0008 181C     		mov	r0, r3
 2352 000a BD46     		mov	sp, r7
 2353              		@ sp needed
 2354 000c 80BD     		pop	{r7, pc}
 2355              	.L186:
 2356 000e C046     		.align	2
 2357              	.L185:
 2358 0010 00000000 		.word	uxCurrentNumberOfTasks
 2359              		.cfi_endproc
 2360              	.LFE20:
 2362              		.section	.text.pcTaskGetName,"ax",%progbits
 2363              		.align	2
 2364              		.global	pcTaskGetName
 2365              		.code	16
 2366              		.thumb_func
 2368              	pcTaskGetName:
 2369              	.LFB21:
2186:../freertos/tasks.c **** /*-----------------------------------------------------------*/
2187:../freertos/tasks.c **** 
2188:../freertos/tasks.c **** char *pcTaskGetName( TaskHandle_t xTaskToQuery ) /*lint !e971 Unqualified char types are allowed fo
2189:../freertos/tasks.c **** {
 2370              		.loc 1 2189 0
 2371              		.cfi_startproc
 2372 0000 80B5     		push	{r7, lr}
 2373              		.cfi_def_cfa_offset 8
 2374              		.cfi_offset 7, -8
 2375              		.cfi_offset 14, -4
 2376 0002 84B0     		sub	sp, sp, #16
 2377              		.cfi_def_cfa_offset 24
 2378 0004 00AF     		add	r7, sp, #0
 2379              		.cfi_def_cfa_register 7
 2380 0006 7860     		str	r0, [r7, #4]
2190:../freertos/tasks.c **** TCB_t *pxTCB;
2191:../freertos/tasks.c **** 
2192:../freertos/tasks.c **** 	/* If null is passed in here then the name of the calling task is being
2193:../freertos/tasks.c **** 	queried. */
2194:../freertos/tasks.c **** 	pxTCB = prvGetTCBFromHandle( xTaskToQuery );
 2381              		.loc 1 2194 0
 2382 0008 7B68     		ldr	r3, [r7, #4]
 2383 000a 002B     		cmp	r3, #0
 2384 000c 02D1     		bne	.L188
 2385              		.loc 1 2194 0 is_stmt 0 discriminator 1
 2386 000e 084B     		ldr	r3, .L193
 2387 0010 1B68     		ldr	r3, [r3]
 2388 0012 00E0     		b	.L189
 2389              	.L188:
 2390              		.loc 1 2194 0 discriminator 2
 2391 0014 7B68     		ldr	r3, [r7, #4]
 2392              	.L189:
 2393              		.loc 1 2194 0 discriminator 3
 2394 0016 FB60     		str	r3, [r7, #12]
2195:../freertos/tasks.c **** 	configASSERT( pxTCB );
 2395              		.loc 1 2195 0 is_stmt 1 discriminator 3
 2396 0018 FB68     		ldr	r3, [r7, #12]
 2397 001a 002B     		cmp	r3, #0
 2398 001c 01D1     		bne	.L190
 2399              		.loc 1 2195 0 is_stmt 0 discriminator 1
 2400              	@ 2195 "../freertos/tasks.c" 1
 2401 001e 72B6     		 cpsid i 
 2402              	@ 0 "" 2
 2403              		.code	16
 2404              	.L191:
 2405 0020 FEE7     		b	.L191
 2406              	.L190:
2196:../freertos/tasks.c **** 	return &( pxTCB->pcTaskName[ 0 ] );
 2407              		.loc 1 2196 0 is_stmt 1
 2408 0022 FB68     		ldr	r3, [r7, #12]
 2409 0024 3433     		add	r3, r3, #52
2197:../freertos/tasks.c **** }
 2410              		.loc 1 2197 0
 2411 0026 181C     		mov	r0, r3
 2412 0028 BD46     		mov	sp, r7
 2413 002a 04B0     		add	sp, sp, #16
 2414              		@ sp needed
 2415 002c 80BD     		pop	{r7, pc}
 2416              	.L194:
 2417 002e C046     		.align	2
 2418              	.L193:
 2419 0030 00000000 		.word	pxCurrentTCB
 2420              		.cfi_endproc
 2421              	.LFE21:
 2423              		.section	.text.uxTaskGetSystemState,"ax",%progbits
 2424              		.align	2
 2425              		.global	uxTaskGetSystemState
 2426              		.code	16
 2427              		.thumb_func
 2429              	uxTaskGetSystemState:
 2430              	.LFB22:
2198:../freertos/tasks.c **** /*-----------------------------------------------------------*/
2199:../freertos/tasks.c **** 
2200:../freertos/tasks.c **** #if ( INCLUDE_xTaskGetHandle == 1 )
2201:../freertos/tasks.c **** 
2202:../freertos/tasks.c **** 	static TCB_t *prvSearchForNameWithinSingleList( List_t *pxList, const char pcNameToQuery[] )
2203:../freertos/tasks.c **** 	{
2204:../freertos/tasks.c **** 	TCB_t *pxNextTCB, *pxFirstTCB, *pxReturn = NULL;
2205:../freertos/tasks.c **** 	UBaseType_t x;
2206:../freertos/tasks.c **** 	char cNextChar;
2207:../freertos/tasks.c **** 
2208:../freertos/tasks.c **** 		/* This function is called with the scheduler suspended. */
2209:../freertos/tasks.c **** 
2210:../freertos/tasks.c **** 		if( listCURRENT_LIST_LENGTH( pxList ) > ( UBaseType_t ) 0 )
2211:../freertos/tasks.c **** 		{
2212:../freertos/tasks.c **** 			listGET_OWNER_OF_NEXT_ENTRY( pxFirstTCB, pxList );
2213:../freertos/tasks.c **** 
2214:../freertos/tasks.c **** 			do
2215:../freertos/tasks.c **** 			{
2216:../freertos/tasks.c **** 				listGET_OWNER_OF_NEXT_ENTRY( pxNextTCB, pxList );
2217:../freertos/tasks.c **** 
2218:../freertos/tasks.c **** 				/* Check each character in the name looking for a match or
2219:../freertos/tasks.c **** 				mismatch. */
2220:../freertos/tasks.c **** 				for( x = ( UBaseType_t ) 0; x < ( UBaseType_t ) configMAX_TASK_NAME_LEN; x++ )
2221:../freertos/tasks.c **** 				{
2222:../freertos/tasks.c **** 					cNextChar = pxNextTCB->pcTaskName[ x ];
2223:../freertos/tasks.c **** 
2224:../freertos/tasks.c **** 					if( cNextChar != pcNameToQuery[ x ] )
2225:../freertos/tasks.c **** 					{
2226:../freertos/tasks.c **** 						/* Characters didn't match. */
2227:../freertos/tasks.c **** 						break;
2228:../freertos/tasks.c **** 					}
2229:../freertos/tasks.c **** 					else if( cNextChar == 0x00 )
2230:../freertos/tasks.c **** 					{
2231:../freertos/tasks.c **** 						/* Both strings terminated, a match must have been
2232:../freertos/tasks.c **** 						found. */
2233:../freertos/tasks.c **** 						pxReturn = pxNextTCB;
2234:../freertos/tasks.c **** 						break;
2235:../freertos/tasks.c **** 					}
2236:../freertos/tasks.c **** 					else
2237:../freertos/tasks.c **** 					{
2238:../freertos/tasks.c **** 						mtCOVERAGE_TEST_MARKER();
2239:../freertos/tasks.c **** 					}
2240:../freertos/tasks.c **** 				}
2241:../freertos/tasks.c **** 
2242:../freertos/tasks.c **** 				if( pxReturn != NULL )
2243:../freertos/tasks.c **** 				{
2244:../freertos/tasks.c **** 					/* The handle has been found. */
2245:../freertos/tasks.c **** 					break;
2246:../freertos/tasks.c **** 				}
2247:../freertos/tasks.c **** 
2248:../freertos/tasks.c **** 			} while( pxNextTCB != pxFirstTCB );
2249:../freertos/tasks.c **** 		}
2250:../freertos/tasks.c **** 		else
2251:../freertos/tasks.c **** 		{
2252:../freertos/tasks.c **** 			mtCOVERAGE_TEST_MARKER();
2253:../freertos/tasks.c **** 		}
2254:../freertos/tasks.c **** 
2255:../freertos/tasks.c **** 		return pxReturn;
2256:../freertos/tasks.c **** 	}
2257:../freertos/tasks.c **** 
2258:../freertos/tasks.c **** #endif /* INCLUDE_xTaskGetHandle */
2259:../freertos/tasks.c **** /*-----------------------------------------------------------*/
2260:../freertos/tasks.c **** 
2261:../freertos/tasks.c **** #if ( INCLUDE_xTaskGetHandle == 1 )
2262:../freertos/tasks.c **** 
2263:../freertos/tasks.c **** 	TaskHandle_t xTaskGetHandle( const char *pcNameToQuery ) /*lint !e971 Unqualified char types are a
2264:../freertos/tasks.c **** 	{
2265:../freertos/tasks.c **** 	UBaseType_t uxQueue = configMAX_PRIORITIES;
2266:../freertos/tasks.c **** 	TCB_t* pxTCB;
2267:../freertos/tasks.c **** 
2268:../freertos/tasks.c **** 		/* Task names will be truncated to configMAX_TASK_NAME_LEN - 1 bytes. */
2269:../freertos/tasks.c **** 		configASSERT( strlen( pcNameToQuery ) < configMAX_TASK_NAME_LEN );
2270:../freertos/tasks.c **** 
2271:../freertos/tasks.c **** 		vTaskSuspendAll();
2272:../freertos/tasks.c **** 		{
2273:../freertos/tasks.c **** 			/* Search the ready lists. */
2274:../freertos/tasks.c **** 			do
2275:../freertos/tasks.c **** 			{
2276:../freertos/tasks.c **** 				uxQueue--;
2277:../freertos/tasks.c **** 				pxTCB = prvSearchForNameWithinSingleList( ( List_t * ) &( pxReadyTasksLists[ uxQueue ] ), pcNam
2278:../freertos/tasks.c **** 
2279:../freertos/tasks.c **** 				if( pxTCB != NULL )
2280:../freertos/tasks.c **** 				{
2281:../freertos/tasks.c **** 					/* Found the handle. */
2282:../freertos/tasks.c **** 					break;
2283:../freertos/tasks.c **** 				}
2284:../freertos/tasks.c **** 
2285:../freertos/tasks.c **** 			} while( uxQueue > ( UBaseType_t ) tskIDLE_PRIORITY ); /*lint !e961 MISRA exception as the casts
2286:../freertos/tasks.c **** 
2287:../freertos/tasks.c **** 			/* Search the delayed lists. */
2288:../freertos/tasks.c **** 			if( pxTCB == NULL )
2289:../freertos/tasks.c **** 			{
2290:../freertos/tasks.c **** 				pxTCB = prvSearchForNameWithinSingleList( ( List_t * ) pxDelayedTaskList, pcNameToQuery );
2291:../freertos/tasks.c **** 			}
2292:../freertos/tasks.c **** 
2293:../freertos/tasks.c **** 			if( pxTCB == NULL )
2294:../freertos/tasks.c **** 			{
2295:../freertos/tasks.c **** 				pxTCB = prvSearchForNameWithinSingleList( ( List_t * ) pxOverflowDelayedTaskList, pcNameToQuery
2296:../freertos/tasks.c **** 			}
2297:../freertos/tasks.c **** 
2298:../freertos/tasks.c **** 			#if ( INCLUDE_vTaskSuspend == 1 )
2299:../freertos/tasks.c **** 			{
2300:../freertos/tasks.c **** 				if( pxTCB == NULL )
2301:../freertos/tasks.c **** 				{
2302:../freertos/tasks.c **** 					/* Search the suspended list. */
2303:../freertos/tasks.c **** 					pxTCB = prvSearchForNameWithinSingleList( &xSuspendedTaskList, pcNameToQuery );
2304:../freertos/tasks.c **** 				}
2305:../freertos/tasks.c **** 			}
2306:../freertos/tasks.c **** 			#endif
2307:../freertos/tasks.c **** 
2308:../freertos/tasks.c **** 			#if( INCLUDE_vTaskDelete == 1 )
2309:../freertos/tasks.c **** 			{
2310:../freertos/tasks.c **** 				if( pxTCB == NULL )
2311:../freertos/tasks.c **** 				{
2312:../freertos/tasks.c **** 					/* Search the deleted list. */
2313:../freertos/tasks.c **** 					pxTCB = prvSearchForNameWithinSingleList( &xTasksWaitingTermination, pcNameToQuery );
2314:../freertos/tasks.c **** 				}
2315:../freertos/tasks.c **** 			}
2316:../freertos/tasks.c **** 			#endif
2317:../freertos/tasks.c **** 		}
2318:../freertos/tasks.c **** 		( void ) xTaskResumeAll();
2319:../freertos/tasks.c **** 
2320:../freertos/tasks.c **** 		return ( TaskHandle_t ) pxTCB;
2321:../freertos/tasks.c **** 	}
2322:../freertos/tasks.c **** 
2323:../freertos/tasks.c **** #endif /* INCLUDE_xTaskGetHandle */
2324:../freertos/tasks.c **** /*-----------------------------------------------------------*/
2325:../freertos/tasks.c **** 
2326:../freertos/tasks.c **** #if ( configUSE_TRACE_FACILITY == 1 )
2327:../freertos/tasks.c **** 
2328:../freertos/tasks.c **** 	UBaseType_t uxTaskGetSystemState( TaskStatus_t * const pxTaskStatusArray, const UBaseType_t uxArra
2329:../freertos/tasks.c **** 	{
 2431              		.loc 1 2329 0
 2432              		.cfi_startproc
 2433 0000 80B5     		push	{r7, lr}
 2434              		.cfi_def_cfa_offset 8
 2435              		.cfi_offset 7, -8
 2436              		.cfi_offset 14, -4
 2437 0002 86B0     		sub	sp, sp, #24
 2438              		.cfi_def_cfa_offset 32
 2439 0004 00AF     		add	r7, sp, #0
 2440              		.cfi_def_cfa_register 7
 2441 0006 F860     		str	r0, [r7, #12]
 2442 0008 B960     		str	r1, [r7, #8]
 2443 000a 7A60     		str	r2, [r7, #4]
2330:../freertos/tasks.c **** 	UBaseType_t uxTask = 0, uxQueue = configMAX_PRIORITIES;
 2444              		.loc 1 2330 0
 2445 000c 0023     		mov	r3, #0
 2446 000e 7B61     		str	r3, [r7, #20]
 2447 0010 0523     		mov	r3, #5
 2448 0012 3B61     		str	r3, [r7, #16]
2331:../freertos/tasks.c **** 
2332:../freertos/tasks.c **** 		vTaskSuspendAll();
 2449              		.loc 1 2332 0
 2450 0014 FFF7FEFF 		bl	vTaskSuspendAll
2333:../freertos/tasks.c **** 		{
2334:../freertos/tasks.c **** 			/* Is there a space in the array for each task in the system? */
2335:../freertos/tasks.c **** 			if( uxArraySize >= uxCurrentNumberOfTasks )
 2451              		.loc 1 2335 0
 2452 0018 3A4B     		ldr	r3, .L200
 2453 001a 1B68     		ldr	r3, [r3]
 2454 001c BA68     		ldr	r2, [r7, #8]
 2455 001e 9A42     		cmp	r2, r3
 2456 0020 68D3     		bcc	.L196
 2457              	.L197:
2336:../freertos/tasks.c **** 			{
2337:../freertos/tasks.c **** 				/* Fill in an TaskStatus_t structure with information on each
2338:../freertos/tasks.c **** 				task in the Ready state. */
2339:../freertos/tasks.c **** 				do
2340:../freertos/tasks.c **** 				{
2341:../freertos/tasks.c **** 					uxQueue--;
 2458              		.loc 1 2341 0 discriminator 1
 2459 0022 3B69     		ldr	r3, [r7, #16]
 2460 0024 013B     		sub	r3, r3, #1
 2461 0026 3B61     		str	r3, [r7, #16]
2342:../freertos/tasks.c **** 					uxTask += prvListTasksWithinSingleList( &( pxTaskStatusArray[ uxTask ] ), &( pxReadyTasksLists
 2462              		.loc 1 2342 0 discriminator 1
 2463 0028 7A69     		ldr	r2, [r7, #20]
 2464 002a 131C     		mov	r3, r2
 2465 002c DB00     		lsl	r3, r3, #3
 2466 002e 9B18     		add	r3, r3, r2
 2467 0030 9B00     		lsl	r3, r3, #2
 2468 0032 FA68     		ldr	r2, [r7, #12]
 2469 0034 D118     		add	r1, r2, r3
 2470 0036 3A69     		ldr	r2, [r7, #16]
 2471 0038 131C     		mov	r3, r2
 2472 003a 9B00     		lsl	r3, r3, #2
 2473 003c 9B18     		add	r3, r3, r2
 2474 003e 9B00     		lsl	r3, r3, #2
 2475 0040 314A     		ldr	r2, .L200+4
 2476 0042 9B18     		add	r3, r3, r2
 2477 0044 081C     		mov	r0, r1
 2478 0046 191C     		mov	r1, r3
 2479 0048 0122     		mov	r2, #1
 2480 004a FFF7FEFF 		bl	prvListTasksWithinSingleList
 2481 004e 031C     		mov	r3, r0
 2482 0050 7A69     		ldr	r2, [r7, #20]
 2483 0052 D318     		add	r3, r2, r3
 2484 0054 7B61     		str	r3, [r7, #20]
2343:../freertos/tasks.c **** 
2344:../freertos/tasks.c **** 				} while( uxQueue > ( UBaseType_t ) tskIDLE_PRIORITY ); /*lint !e961 MISRA exception as the cast
 2485              		.loc 1 2344 0 discriminator 1
 2486 0056 3B69     		ldr	r3, [r7, #16]
 2487 0058 002B     		cmp	r3, #0
 2488 005a E2D1     		bne	.L197
2345:../freertos/tasks.c **** 
2346:../freertos/tasks.c **** 				/* Fill in an TaskStatus_t structure with information on each
2347:../freertos/tasks.c **** 				task in the Blocked state. */
2348:../freertos/tasks.c **** 				uxTask += prvListTasksWithinSingleList( &( pxTaskStatusArray[ uxTask ] ), ( List_t * ) pxDelaye
 2489              		.loc 1 2348 0
 2490 005c 7A69     		ldr	r2, [r7, #20]
 2491 005e 131C     		mov	r3, r2
 2492 0060 DB00     		lsl	r3, r3, #3
 2493 0062 9B18     		add	r3, r3, r2
 2494 0064 9B00     		lsl	r3, r3, #2
 2495 0066 FA68     		ldr	r2, [r7, #12]
 2496 0068 D218     		add	r2, r2, r3
 2497 006a 284B     		ldr	r3, .L200+8
 2498 006c 1B68     		ldr	r3, [r3]
 2499 006e 101C     		mov	r0, r2
 2500 0070 191C     		mov	r1, r3
 2501 0072 0222     		mov	r2, #2
 2502 0074 FFF7FEFF 		bl	prvListTasksWithinSingleList
 2503 0078 031C     		mov	r3, r0
 2504 007a 7A69     		ldr	r2, [r7, #20]
 2505 007c D318     		add	r3, r2, r3
 2506 007e 7B61     		str	r3, [r7, #20]
2349:../freertos/tasks.c **** 				uxTask += prvListTasksWithinSingleList( &( pxTaskStatusArray[ uxTask ] ), ( List_t * ) pxOverfl
 2507              		.loc 1 2349 0
 2508 0080 7A69     		ldr	r2, [r7, #20]
 2509 0082 131C     		mov	r3, r2
 2510 0084 DB00     		lsl	r3, r3, #3
 2511 0086 9B18     		add	r3, r3, r2
 2512 0088 9B00     		lsl	r3, r3, #2
 2513 008a FA68     		ldr	r2, [r7, #12]
 2514 008c D218     		add	r2, r2, r3
 2515 008e 204B     		ldr	r3, .L200+12
 2516 0090 1B68     		ldr	r3, [r3]
 2517 0092 101C     		mov	r0, r2
 2518 0094 191C     		mov	r1, r3
 2519 0096 0222     		mov	r2, #2
 2520 0098 FFF7FEFF 		bl	prvListTasksWithinSingleList
 2521 009c 031C     		mov	r3, r0
 2522 009e 7A69     		ldr	r2, [r7, #20]
 2523 00a0 D318     		add	r3, r2, r3
 2524 00a2 7B61     		str	r3, [r7, #20]
2350:../freertos/tasks.c **** 
2351:../freertos/tasks.c **** 				#if( INCLUDE_vTaskDelete == 1 )
2352:../freertos/tasks.c **** 				{
2353:../freertos/tasks.c **** 					/* Fill in an TaskStatus_t structure with information on
2354:../freertos/tasks.c **** 					each task that has been deleted but not yet cleaned up. */
2355:../freertos/tasks.c **** 					uxTask += prvListTasksWithinSingleList( &( pxTaskStatusArray[ uxTask ] ), &xTasksWaitingTermin
 2525              		.loc 1 2355 0
 2526 00a4 7A69     		ldr	r2, [r7, #20]
 2527 00a6 131C     		mov	r3, r2
 2528 00a8 DB00     		lsl	r3, r3, #3
 2529 00aa 9B18     		add	r3, r3, r2
 2530 00ac 9B00     		lsl	r3, r3, #2
 2531 00ae FA68     		ldr	r2, [r7, #12]
 2532 00b0 D218     		add	r2, r2, r3
 2533 00b2 184B     		ldr	r3, .L200+16
 2534 00b4 101C     		mov	r0, r2
 2535 00b6 191C     		mov	r1, r3
 2536 00b8 0422     		mov	r2, #4
 2537 00ba FFF7FEFF 		bl	prvListTasksWithinSingleList
 2538 00be 031C     		mov	r3, r0
 2539 00c0 7A69     		ldr	r2, [r7, #20]
 2540 00c2 D318     		add	r3, r2, r3
 2541 00c4 7B61     		str	r3, [r7, #20]
2356:../freertos/tasks.c **** 				}
2357:../freertos/tasks.c **** 				#endif
2358:../freertos/tasks.c **** 
2359:../freertos/tasks.c **** 				#if ( INCLUDE_vTaskSuspend == 1 )
2360:../freertos/tasks.c **** 				{
2361:../freertos/tasks.c **** 					/* Fill in an TaskStatus_t structure with information on
2362:../freertos/tasks.c **** 					each task in the Suspended state. */
2363:../freertos/tasks.c **** 					uxTask += prvListTasksWithinSingleList( &( pxTaskStatusArray[ uxTask ] ), &xSuspendedTaskList,
 2542              		.loc 1 2363 0
 2543 00c6 7A69     		ldr	r2, [r7, #20]
 2544 00c8 131C     		mov	r3, r2
 2545 00ca DB00     		lsl	r3, r3, #3
 2546 00cc 9B18     		add	r3, r3, r2
 2547 00ce 9B00     		lsl	r3, r3, #2
 2548 00d0 FA68     		ldr	r2, [r7, #12]
 2549 00d2 D218     		add	r2, r2, r3
 2550 00d4 104B     		ldr	r3, .L200+20
 2551 00d6 101C     		mov	r0, r2
 2552 00d8 191C     		mov	r1, r3
 2553 00da 0322     		mov	r2, #3
 2554 00dc FFF7FEFF 		bl	prvListTasksWithinSingleList
 2555 00e0 031C     		mov	r3, r0
 2556 00e2 7A69     		ldr	r2, [r7, #20]
 2557 00e4 D318     		add	r3, r2, r3
 2558 00e6 7B61     		str	r3, [r7, #20]
2364:../freertos/tasks.c **** 				}
2365:../freertos/tasks.c **** 				#endif
2366:../freertos/tasks.c **** 
2367:../freertos/tasks.c **** 				#if ( configGENERATE_RUN_TIME_STATS == 1)
2368:../freertos/tasks.c **** 				{
2369:../freertos/tasks.c **** 					if( pulTotalRunTime != NULL )
2370:../freertos/tasks.c **** 					{
2371:../freertos/tasks.c **** 						#ifdef portALT_GET_RUN_TIME_COUNTER_VALUE
2372:../freertos/tasks.c **** 							portALT_GET_RUN_TIME_COUNTER_VALUE( ( *pulTotalRunTime ) );
2373:../freertos/tasks.c **** 						#else
2374:../freertos/tasks.c **** 							*pulTotalRunTime = portGET_RUN_TIME_COUNTER_VALUE();
2375:../freertos/tasks.c **** 						#endif
2376:../freertos/tasks.c **** 					}
2377:../freertos/tasks.c **** 				}
2378:../freertos/tasks.c **** 				#else
2379:../freertos/tasks.c **** 				{
2380:../freertos/tasks.c **** 					if( pulTotalRunTime != NULL )
 2559              		.loc 1 2380 0
 2560 00e8 7B68     		ldr	r3, [r7, #4]
 2561 00ea 002B     		cmp	r3, #0
 2562 00ec 02D0     		beq	.L196
2381:../freertos/tasks.c **** 					{
2382:../freertos/tasks.c **** 						*pulTotalRunTime = 0;
 2563              		.loc 1 2382 0
 2564 00ee 7B68     		ldr	r3, [r7, #4]
 2565 00f0 0022     		mov	r2, #0
 2566 00f2 1A60     		str	r2, [r3]
 2567              	.L196:
2383:../freertos/tasks.c **** 					}
2384:../freertos/tasks.c **** 				}
2385:../freertos/tasks.c **** 				#endif
2386:../freertos/tasks.c **** 			}
2387:../freertos/tasks.c **** 			else
2388:../freertos/tasks.c **** 			{
2389:../freertos/tasks.c **** 				mtCOVERAGE_TEST_MARKER();
2390:../freertos/tasks.c **** 			}
2391:../freertos/tasks.c **** 		}
2392:../freertos/tasks.c **** 		( void ) xTaskResumeAll();
 2568              		.loc 1 2392 0
 2569 00f4 FFF7FEFF 		bl	xTaskResumeAll
2393:../freertos/tasks.c **** 
2394:../freertos/tasks.c **** 		return uxTask;
 2570              		.loc 1 2394 0
 2571 00f8 7B69     		ldr	r3, [r7, #20]
2395:../freertos/tasks.c **** 	}
 2572              		.loc 1 2395 0
 2573 00fa 181C     		mov	r0, r3
 2574 00fc BD46     		mov	sp, r7
 2575 00fe 06B0     		add	sp, sp, #24
 2576              		@ sp needed
 2577 0100 80BD     		pop	{r7, pc}
 2578              	.L201:
 2579 0102 C046     		.align	2
 2580              	.L200:
 2581 0104 00000000 		.word	uxCurrentNumberOfTasks
 2582 0108 00000000 		.word	pxReadyTasksLists
 2583 010c 00000000 		.word	pxDelayedTaskList
 2584 0110 00000000 		.word	pxOverflowDelayedTaskList
 2585 0114 00000000 		.word	xTasksWaitingTermination
 2586 0118 00000000 		.word	xSuspendedTaskList
 2587              		.cfi_endproc
 2588              	.LFE22:
 2590              		.section	.text.xTaskIncrementTick,"ax",%progbits
 2591              		.align	2
 2592              		.global	xTaskIncrementTick
 2593              		.code	16
 2594              		.thumb_func
 2596              	xTaskIncrementTick:
 2597              	.LFB23:
2396:../freertos/tasks.c **** 
2397:../freertos/tasks.c **** #endif /* configUSE_TRACE_FACILITY */
2398:../freertos/tasks.c **** /*----------------------------------------------------------*/
2399:../freertos/tasks.c **** 
2400:../freertos/tasks.c **** #if ( INCLUDE_xTaskGetIdleTaskHandle == 1 )
2401:../freertos/tasks.c **** 
2402:../freertos/tasks.c **** 	TaskHandle_t xTaskGetIdleTaskHandle( void )
2403:../freertos/tasks.c **** 	{
2404:../freertos/tasks.c **** 		/* If xTaskGetIdleTaskHandle() is called before the scheduler has been
2405:../freertos/tasks.c **** 		started, then xIdleTaskHandle will be NULL. */
2406:../freertos/tasks.c **** 		configASSERT( ( xIdleTaskHandle != NULL ) );
2407:../freertos/tasks.c **** 		return xIdleTaskHandle;
2408:../freertos/tasks.c **** 	}
2409:../freertos/tasks.c **** 
2410:../freertos/tasks.c **** #endif /* INCLUDE_xTaskGetIdleTaskHandle */
2411:../freertos/tasks.c **** /*----------------------------------------------------------*/
2412:../freertos/tasks.c **** 
2413:../freertos/tasks.c **** /* This conditional compilation should use inequality to 0, not equality to 1.
2414:../freertos/tasks.c **** This is to ensure vTaskStepTick() is available when user defined low power mode
2415:../freertos/tasks.c **** implementations require configUSE_TICKLESS_IDLE to be set to a value other than
2416:../freertos/tasks.c **** 1. */
2417:../freertos/tasks.c **** #if ( configUSE_TICKLESS_IDLE != 0 )
2418:../freertos/tasks.c **** 
2419:../freertos/tasks.c **** 	void vTaskStepTick( const TickType_t xTicksToJump )
2420:../freertos/tasks.c **** 	{
2421:../freertos/tasks.c **** 		/* Correct the tick count value after a period during which the tick
2422:../freertos/tasks.c **** 		was suppressed.  Note this does *not* call the tick hook function for
2423:../freertos/tasks.c **** 		each stepped tick. */
2424:../freertos/tasks.c **** 		configASSERT( ( xTickCount + xTicksToJump ) <= xNextTaskUnblockTime );
2425:../freertos/tasks.c **** 		xTickCount += xTicksToJump;
2426:../freertos/tasks.c **** 		traceINCREASE_TICK_COUNT( xTicksToJump );
2427:../freertos/tasks.c **** 	}
2428:../freertos/tasks.c **** 
2429:../freertos/tasks.c **** #endif /* configUSE_TICKLESS_IDLE */
2430:../freertos/tasks.c **** /*----------------------------------------------------------*/
2431:../freertos/tasks.c **** 
2432:../freertos/tasks.c **** #if ( INCLUDE_xTaskAbortDelay == 1 )
2433:../freertos/tasks.c **** 
2434:../freertos/tasks.c **** 	BaseType_t xTaskAbortDelay( TaskHandle_t xTask )
2435:../freertos/tasks.c **** 	{
2436:../freertos/tasks.c **** 	TCB_t *pxTCB = ( TCB_t * ) xTask;
2437:../freertos/tasks.c **** 	BaseType_t xReturn = pdFALSE;
2438:../freertos/tasks.c **** 
2439:../freertos/tasks.c **** 		configASSERT( pxTCB );
2440:../freertos/tasks.c **** 
2441:../freertos/tasks.c **** 		vTaskSuspendAll();
2442:../freertos/tasks.c **** 		{
2443:../freertos/tasks.c **** 			/* A task can only be prematurely removed from the Blocked state if
2444:../freertos/tasks.c **** 			it is actually in the Blocked state. */
2445:../freertos/tasks.c **** 			if( eTaskGetState( xTask ) == eBlocked )
2446:../freertos/tasks.c **** 			{
2447:../freertos/tasks.c **** 				/* Remove the reference to the task from the blocked list.  An
2448:../freertos/tasks.c **** 				interrupt won't touch the xStateListItem because the
2449:../freertos/tasks.c **** 				scheduler is suspended. */
2450:../freertos/tasks.c **** 				( void ) uxListRemove( &( pxTCB->xStateListItem ) );
2451:../freertos/tasks.c **** 
2452:../freertos/tasks.c **** 				/* Is the task waiting on an event also?  If so remove it from
2453:../freertos/tasks.c **** 				the event list too.  Interrupts can touch the event list item,
2454:../freertos/tasks.c **** 				even though the scheduler is suspended, so a critical section
2455:../freertos/tasks.c **** 				is used. */
2456:../freertos/tasks.c **** 				taskENTER_CRITICAL();
2457:../freertos/tasks.c **** 				{
2458:../freertos/tasks.c **** 					if( listLIST_ITEM_CONTAINER( &( pxTCB->xEventListItem ) ) != NULL )
2459:../freertos/tasks.c **** 					{
2460:../freertos/tasks.c **** 						( void ) uxListRemove( &( pxTCB->xEventListItem ) );
2461:../freertos/tasks.c **** 						pxTCB->ucDelayAborted = pdTRUE;
2462:../freertos/tasks.c **** 					}
2463:../freertos/tasks.c **** 					else
2464:../freertos/tasks.c **** 					{
2465:../freertos/tasks.c **** 						mtCOVERAGE_TEST_MARKER();
2466:../freertos/tasks.c **** 					}
2467:../freertos/tasks.c **** 				}
2468:../freertos/tasks.c **** 				taskEXIT_CRITICAL();
2469:../freertos/tasks.c **** 
2470:../freertos/tasks.c **** 				/* Place the unblocked task into the appropriate ready list. */
2471:../freertos/tasks.c **** 				prvAddTaskToReadyList( pxTCB );
2472:../freertos/tasks.c **** 
2473:../freertos/tasks.c **** 				/* A task being unblocked cannot cause an immediate context
2474:../freertos/tasks.c **** 				switch if preemption is turned off. */
2475:../freertos/tasks.c **** 				#if (  configUSE_PREEMPTION == 1 )
2476:../freertos/tasks.c **** 				{
2477:../freertos/tasks.c **** 					/* Preemption is on, but a context switch should only be
2478:../freertos/tasks.c **** 					performed if the unblocked task has a priority that is
2479:../freertos/tasks.c **** 					equal to or higher than the currently executing task. */
2480:../freertos/tasks.c **** 					if( pxTCB->uxPriority > pxCurrentTCB->uxPriority )
2481:../freertos/tasks.c **** 					{
2482:../freertos/tasks.c **** 						/* Pend the yield to be performed when the scheduler
2483:../freertos/tasks.c **** 						is unsuspended. */
2484:../freertos/tasks.c **** 						xYieldPending = pdTRUE;
2485:../freertos/tasks.c **** 					}
2486:../freertos/tasks.c **** 					else
2487:../freertos/tasks.c **** 					{
2488:../freertos/tasks.c **** 						mtCOVERAGE_TEST_MARKER();
2489:../freertos/tasks.c **** 					}
2490:../freertos/tasks.c **** 				}
2491:../freertos/tasks.c **** 				#endif /* configUSE_PREEMPTION */
2492:../freertos/tasks.c **** 			}
2493:../freertos/tasks.c **** 			else
2494:../freertos/tasks.c **** 			{
2495:../freertos/tasks.c **** 				mtCOVERAGE_TEST_MARKER();
2496:../freertos/tasks.c **** 			}
2497:../freertos/tasks.c **** 		}
2498:../freertos/tasks.c **** 		xTaskResumeAll();
2499:../freertos/tasks.c **** 
2500:../freertos/tasks.c **** 		return xReturn;
2501:../freertos/tasks.c **** 	}
2502:../freertos/tasks.c **** 
2503:../freertos/tasks.c **** #endif /* INCLUDE_xTaskAbortDelay */
2504:../freertos/tasks.c **** /*----------------------------------------------------------*/
2505:../freertos/tasks.c **** 
2506:../freertos/tasks.c **** BaseType_t xTaskIncrementTick( void )
2507:../freertos/tasks.c **** {
 2598              		.loc 1 2507 0
 2599              		.cfi_startproc
 2600 0000 80B5     		push	{r7, lr}
 2601              		.cfi_def_cfa_offset 8
 2602              		.cfi_offset 7, -8
 2603              		.cfi_offset 14, -4
 2604 0002 86B0     		sub	sp, sp, #24
 2605              		.cfi_def_cfa_offset 32
 2606 0004 00AF     		add	r7, sp, #0
 2607              		.cfi_def_cfa_register 7
2508:../freertos/tasks.c **** TCB_t * pxTCB;
2509:../freertos/tasks.c **** TickType_t xItemValue;
2510:../freertos/tasks.c **** BaseType_t xSwitchRequired = pdFALSE;
 2608              		.loc 1 2510 0
 2609 0006 0023     		mov	r3, #0
 2610 0008 7B61     		str	r3, [r7, #20]
2511:../freertos/tasks.c **** 
2512:../freertos/tasks.c **** 	/* Called by the portable layer each time a tick interrupt occurs.
